SF:C:\Users\randy\Git\qsoripper-adif-refresh\src\rust\qsoripper-core\src\adif\mapper.rs
FN:336,_RNvMNtNtCsgPbJLsevrBc_14qsoripper_core4adif6mapperNtB2_10AdifMapper10qso_to_adi
FN:29,_RNvMNtNtCsgPbJLsevrBc_14qsoripper_core4adif6mapperNtB2_10AdifMapper13record_to_qso
FN:327,_RNvMNtNtCsgPbJLsevrBc_14qsoripper_core4adif6mapperNtB2_10AdifMapper18qso_to_adif_fields
FN:343,_RNvMNtNtCsgPbJLsevrBc_14qsoripper_core4adif6mapperNtB2_10AdifMapper27qso_to_adif_fields_borrowed
FN:738,_RNvNtNtCsgPbJLsevrBc_14qsoripper_core4adif6mapper10mhz_to_khz
FN:664,_RNvNtNtCsgPbJLsevrBc_14qsoripper_core4adif6mapper16format_adif_date
FN:786,_RNvNtNtCsgPbJLsevrBc_14qsoripper_core4adif6mapper19field_is_overridden
FN:611,_RNvNtNtCsgPbJLsevrBc_14qsoripper_core4adif6mapper19parse_adif_datetime
FN:670,_RNvNtNtCsgPbJLsevrBc_14qsoripper_core4adif6mapper19parse_adif_location
FN:656,_RNvNtNtCsgPbJLsevrBc_14qsoripper_core4adif6mapper20format_adif_datetime
FN:702,_RNvNtNtCsgPbJLsevrBc_14qsoripper_core4adif6mapper20format_adif_location
FN:761,_RNvNtNtCsgPbJLsevrBc_14qsoripper_core4adif6mapper22map_confirmation_field
FN:751,_RNvNtNtCsgPbJLsevrBc_14qsoripper_core4adif6mapper23parse_confirmation_bool
FN:774,_RNvNtNtCsgPbJLsevrBc_14qsoripper_core4adif6mapper23push_confirmation_field
FN:577,_RINvMNtNtCsgPbJLsevrBc_14qsoripper_core4adif6mapperNtB3_10AdifMapper13fields_to_adiINtNtCs2ocB3yIIgEv_5alloc6borrow3CoweEB1j_EB7_
FN:602,_RINvNtNtCsgPbJLsevrBc_14qsoripper_core4adif6mapper10push_fieldReBY_EB6_
FN:602,_RINvNtNtCsgPbJLsevrBc_14qsoripper_core4adif6mapper10push_fieldReNtNtCs2ocB3yIIgEv_5alloc6string6StringEB6_
FN:582,_RNCINvMNtNtCsgPbJLsevrBc_14qsoripper_core4adif6mapperNtB5_10AdifMapper13fields_to_adiINtNtCs2ocB3yIIgEv_5alloc6borrow3CoweEB1l_E0B9_
FN:86,_RNCNvMNtNtCsgPbJLsevrBc_14qsoripper_core4adif6mapperNtB4_10AdifMapper13record_to_qso0B8_
FN:330,_RNCNvMNtNtCsgPbJLsevrBc_14qsoripper_core4adif6mapperNtB4_10AdifMapper18qso_to_adif_fields0B8_
FN:350,_RNCNvMNtNtCsgPbJLsevrBc_14qsoripper_core4adif6mapperNtB4_10AdifMapper27qso_to_adif_fields_borrowed0B8_
FN:352,_RNCNvMNtNtCsgPbJLsevrBc_14qsoripper_core4adif6mapperNtB4_10AdifMapper27qso_to_adif_fields_borroweds0_0B8_
FN:365,_RNCNvMNtNtCsgPbJLsevrBc_14qsoripper_core4adif6mapperNtB4_10AdifMapper27qso_to_adif_fields_borroweds1_0B8_
FN:485,_RNCNvMNtNtCsgPbJLsevrBc_14qsoripper_core4adif6mapperNtB4_10AdifMapper27qso_to_adif_fields_borroweds2_0B8_
FN:491,_RNCNvMNtNtCsgPbJLsevrBc_14qsoripper_core4adif6mapperNtB4_10AdifMapper27qso_to_adif_fields_borroweds3_0B8_
FN:351,_RNCNvMNtNtCsgPbJLsevrBc_14qsoripper_core4adif6mapperNtB4_10AdifMapper27qso_to_adif_fields_borroweds_0B8_
FN:800,_RNCNvNtNtCsgPbJLsevrBc_14qsoripper_core4adif6mapper19field_is_overridden0B7_
FN:813,_RNCNvNtNtCsgPbJLsevrBc_14qsoripper_core4adif6mapper19field_is_overriddens0_0B7_
FN:817,_RNCNvNtNtCsgPbJLsevrBc_14qsoripper_core4adif6mapper19field_is_overriddens1_0B7_
FN:821,_RNCNvNtNtCsgPbJLsevrBc_14qsoripper_core4adif6mapper19field_is_overriddens2_0B7_
FN:825,_RNCNvNtNtCsgPbJLsevrBc_14qsoripper_core4adif6mapper19field_is_overriddens3_0B7_
FN:829,_RNCNvNtNtCsgPbJLsevrBc_14qsoripper_core4adif6mapper19field_is_overriddens4_0B7_
FN:805,_RNCNvNtNtCsgPbJLsevrBc_14qsoripper_core4adif6mapper19field_is_overriddens_0B7_
FN:853,_RNCNvNtNtCsgPbJLsevrBc_14qsoripper_core4adif6mapper19field_is_overriddensa_0B7_
FN:878,_RNvNtNtNtCs5kss5fdZ6xS_14qsoripper_core4adif6mapper5tests16make_test_record
FN:1371,_RNvNtNtNtCs5kss5fdZ6xS_14qsoripper_core4adif6mapper5testss_17adi_format_output
FN:1538,_RNvNtNtNtCs5kss5fdZ6xS_14qsoripper_core4adif6mapper5testss_24frequency_to_khz_precise
FN:977,_RNvNtNtNtCs5kss5fdZ6xS_14qsoripper_core4adif6mapper5testss_24record_to_qso_qsl_fields
FN:1627,_RNvNtNtNtCs5kss5fdZ6xS_14qsoripper_core4adif6mapper5testss_25adif_location_round_trips
FN:900,_RNvNtNtNtCs5kss5fdZ6xS_14qsoripper_core4adif6mapper5testss_25record_to_qso_core_fields
FN:1528,_RNvNtNtNtCs5kss5fdZ6xS_14qsoripper_core4adif6mapper5testss_27frequency_to_khz_conversion
FN:1042,_RNvNtNtNtCs5kss5fdZ6xS_14qsoripper_core4adif6mapper5testss_28record_to_qso_contest_fields
FN:919,_RNvNtNtNtCs5kss5fdZ6xS_14qsoripper_core4adif6mapper5testss_28record_to_qso_signal_reports
FN:1616,_RNvNtNtNtCs5kss5fdZ6xS_14qsoripper_core4adif6mapper5testss_29non_ascii_date_does_not_panic
FN:1244,_RNvNtNtNtCs5kss5fdZ6xS_14qsoripper_core4adif6mapper5testss_29qso_to_adif_fields_round_trip
FN:1548,_RNvNtNtNtCs5kss5fdZ6xS_14qsoripper_core4adif6mapper5testss_30negative_frequency_is_rejected
FN:950,_RNvNtNtNtCs5kss5fdZ6xS_14qsoripper_core4adif6mapper5testss_30record_to_qso_timestamp_4digit
FN:963,_RNvNtNtNtCs5kss5fdZ6xS_14qsoripper_core4adif6mapper5testss_30record_to_qso_timestamp_6digit
FN:1264,_RNvNtNtNtCs5kss5fdZ6xS_14qsoripper_core4adif6mapper5testss_32record_to_qso_maps_end_timestamp
FN:1164,_RNvNtNtNtCs5kss5fdZ6xS_14qsoripper_core4adif6mapper5testss_32record_to_qso_propagation_fields
FN:1208,_RNvNtNtNtCs5kss5fdZ6xS_14qsoripper_core4adif6mapper5testss_34import_only_mode_c4fm_sets_submode
FN:1093,_RNvNtNtNtCs5kss5fdZ6xS_14qsoripper_core4adif6mapper5testss_35record_to_qso_geographic_enrichment
FN:1561,_RNvNtNtNtCs5kss5fdZ6xS_14qsoripper_core4adif6mapper5testss_36negative_nanos_does_not_corrupt_date
FN:1178,_RNvNtNtNtCs5kss5fdZ6xS_14qsoripper_core4adif6mapper5testss_36record_to_qso_extra_fields_preserved
FN:893,_RNvNtNtNtCs5kss5fdZ6xS_14qsoripper_core4adif6mapper5testss_37record_to_qso_generates_uuid_local_id
FN:1282,_RNvNtNtNtCs5kss5fdZ6xS_14qsoripper_core4adif6mapper5testss_38qso_to_adif_fields_emits_end_timestamp
FN:936,_RNvNtNtNtCs5kss5fdZ6xS_14qsoripper_core4adif6mapper5testss_41record_to_qso_parses_three_digit_rst_tone
FN:1511,_RNvNtNtNtCs5kss5fdZ6xS_14qsoripper_core4adif6mapper5testss_42operator_fallback_when_no_station_callsign
FN:1135,_RNvNtNtNtCs5kss5fdZ6xS_14qsoripper_core4adif6mapper5testss_42record_to_qso_maps_station_snapshot_fields
FN:1585,_RNvNtNtNtCs5kss5fdZ6xS_14qsoripper_core4adif6mapper5testss_46invalid_qsl_dates_fall_back_to_overflow_fields
FN:1058,_RNvNtNtNtCs5kss5fdZ6xS_14qsoripper_core4adif6mapper5testss_48invalid_core_fields_are_preserved_for_round_trip
FN:1307,_RNvNtNtNtCs5kss5fdZ6xS_14qsoripper_core4adif6mapper5testss_48qso_to_adif_fields_emits_station_snapshot_fields
FN:1219,_RNvNtNtNtCs5kss5fdZ6xS_14qsoripper_core4adif6mapper5testss_48submode_aliases_in_mode_field_map_to_parent_mode
FN:1013,_RNvNtNtNtCs5kss5fdZ6xS_14qsoripper_core4adif6mapper5testss_53non_boolean_lotw_eqsl_values_preserved_for_round_trip
FN:1383,_RNvNtNtNtCs5kss5fdZ6xS_14qsoripper_core4adif6mapper5testss_56qso_to_adif_fields_emits_n_for_false_confirmation_fields
FN:1406,_RNvNtNtNtCs5kss5fdZ6xS_14qsoripper_core4adif6mapper5testss_57dedicated_fields_do_not_duplicate_overridden_extra_fields
FN:1121,_RNvNtNtNtCs5kss5fdZ6xS_14qsoripper_core4adif6mapper5testss_61dxcc_enrichment_populates_missing_country_continent_and_zones
FN:1342,_RNvNtNtNtCs5kss5fdZ6xS_14qsoripper_core4adif6mapper5testss_70qso_to_adif_fields_emits_contacted_operator_arrl_section_and_qsl_dates
FN:336,_RNvMNtNtCs5kss5fdZ6xS_14qsoripper_core4adif6mapperNtB2_10AdifMapper10qso_to_adi
FN:29,_RNvMNtNtCs5kss5fdZ6xS_14qsoripper_core4adif6mapperNtB2_10AdifMapper13record_to_qso
FN:327,_RNvMNtNtCs5kss5fdZ6xS_14qsoripper_core4adif6mapperNtB2_10AdifMapper18qso_to_adif_fields
FN:343,_RNvMNtNtCs5kss5fdZ6xS_14qsoripper_core4adif6mapperNtB2_10AdifMapper27qso_to_adif_fields_borrowed
FN:738,_RNvNtNtCs5kss5fdZ6xS_14qsoripper_core4adif6mapper10mhz_to_khz
FN:664,_RNvNtNtCs5kss5fdZ6xS_14qsoripper_core4adif6mapper16format_adif_date
FN:786,_RNvNtNtCs5kss5fdZ6xS_14qsoripper_core4adif6mapper19field_is_overridden
FN:611,_RNvNtNtCs5kss5fdZ6xS_14qsoripper_core4adif6mapper19parse_adif_datetime
FN:670,_RNvNtNtCs5kss5fdZ6xS_14qsoripper_core4adif6mapper19parse_adif_location
FN:656,_RNvNtNtCs5kss5fdZ6xS_14qsoripper_core4adif6mapper20format_adif_datetime
FN:702,_RNvNtNtCs5kss5fdZ6xS_14qsoripper_core4adif6mapper20format_adif_location
FN:761,_RNvNtNtCs5kss5fdZ6xS_14qsoripper_core4adif6mapper22map_confirmation_field
FN:751,_RNvNtNtCs5kss5fdZ6xS_14qsoripper_core4adif6mapper23parse_confirmation_bool
FN:774,_RNvNtNtCs5kss5fdZ6xS_14qsoripper_core4adif6mapper23push_confirmation_field
FN:577,_RINvMNtNtCs5kss5fdZ6xS_14qsoripper_core4adif6mapperNtB3_10AdifMapper13fields_to_adiINtNtCs2ocB3yIIgEv_5alloc6borrow3CoweEB1j_EB7_
FN:577,_RINvMNtNtCs5kss5fdZ6xS_14qsoripper_core4adif6mapperNtB3_10AdifMapper13fields_to_adiNtNtCs2ocB3yIIgEv_5alloc6string6StringB1j_EB7_
FN:602,_RINvNtNtCs5kss5fdZ6xS_14qsoripper_core4adif6mapper10push_fieldReBY_EB6_
FN:602,_RINvNtNtCs5kss5fdZ6xS_14qsoripper_core4adif6mapper10push_fieldReNtNtCs2ocB3yIIgEv_5alloc6string6StringEB6_
FN:582,_RNCINvMNtNtCs5kss5fdZ6xS_14qsoripper_core4adif6mapperNtB5_10AdifMapper13fields_to_adiINtNtCs2ocB3yIIgEv_5alloc6borrow3CoweEB1l_E0B9_
FN:582,_RNCINvMNtNtCs5kss5fdZ6xS_14qsoripper_core4adif6mapperNtB5_10AdifMapper13fields_to_adiNtNtCs2ocB3yIIgEv_5alloc6string6StringB1l_E0B9_
FN:86,_RNCNvMNtNtCs5kss5fdZ6xS_14qsoripper_core4adif6mapperNtB4_10AdifMapper13record_to_qso0B8_
FN:330,_RNCNvMNtNtCs5kss5fdZ6xS_14qsoripper_core4adif6mapperNtB4_10AdifMapper18qso_to_adif_fields0B8_
FN:350,_RNCNvMNtNtCs5kss5fdZ6xS_14qsoripper_core4adif6mapperNtB4_10AdifMapper27qso_to_adif_fields_borrowed0B8_
FN:352,_RNCNvMNtNtCs5kss5fdZ6xS_14qsoripper_core4adif6mapperNtB4_10AdifMapper27qso_to_adif_fields_borroweds0_0B8_
FN:365,_RNCNvMNtNtCs5kss5fdZ6xS_14qsoripper_core4adif6mapperNtB4_10AdifMapper27qso_to_adif_fields_borroweds1_0B8_
FN:485,_RNCNvMNtNtCs5kss5fdZ6xS_14qsoripper_core4adif6mapperNtB4_10AdifMapper27qso_to_adif_fields_borroweds2_0B8_
FN:491,_RNCNvMNtNtCs5kss5fdZ6xS_14qsoripper_core4adif6mapperNtB4_10AdifMapper27qso_to_adif_fields_borroweds3_0B8_
FN:351,_RNCNvMNtNtCs5kss5fdZ6xS_14qsoripper_core4adif6mapperNtB4_10AdifMapper27qso_to_adif_fields_borroweds_0B8_
FN:800,_RNCNvNtNtCs5kss5fdZ6xS_14qsoripper_core4adif6mapper19field_is_overridden0B7_
FN:813,_RNCNvNtNtCs5kss5fdZ6xS_14qsoripper_core4adif6mapper19field_is_overriddens0_0B7_
FN:817,_RNCNvNtNtCs5kss5fdZ6xS_14qsoripper_core4adif6mapper19field_is_overriddens1_0B7_
FN:821,_RNCNvNtNtCs5kss5fdZ6xS_14qsoripper_core4adif6mapper19field_is_overriddens2_0B7_
FN:825,_RNCNvNtNtCs5kss5fdZ6xS_14qsoripper_core4adif6mapper19field_is_overriddens3_0B7_
FN:829,_RNCNvNtNtCs5kss5fdZ6xS_14qsoripper_core4adif6mapper19field_is_overriddens4_0B7_
FN:805,_RNCNvNtNtCs5kss5fdZ6xS_14qsoripper_core4adif6mapper19field_is_overriddens_0B7_
FN:853,_RNCNvNtNtCs5kss5fdZ6xS_14qsoripper_core4adif6mapper19field_is_overriddensa_0B7_
FN:913,_RNCNvNtNtNtCs5kss5fdZ6xS_14qsoripper_core4adif6mapper5testss_25record_to_qso_core_fields0B9_
FN:1252,_RNCNvNtNtNtCs5kss5fdZ6xS_14qsoripper_core4adif6mapper5testss_29qso_to_adif_fields_round_trip0B9_
FN:1574,_RNCNvNtNtNtCs5kss5fdZ6xS_14qsoripper_core4adif6mapper5testss_36negative_nanos_does_not_corrupt_date0B9_
FN:1299,_RNCNvNtNtNtCs5kss5fdZ6xS_14qsoripper_core4adif6mapper5testss_38qso_to_adif_fields_emits_end_timestamp0B9_
FN:1522,_RNCNvNtNtNtCs5kss5fdZ6xS_14qsoripper_core4adif6mapper5testss_42operator_fallback_when_no_station_callsign0B9_
FN:1608,_RNCNvNtNtNtCs5kss5fdZ6xS_14qsoripper_core4adif6mapper5testss_46invalid_qsl_dates_fall_back_to_overflow_fields0B9_
FN:1328,_RNCNvNtNtNtCs5kss5fdZ6xS_14qsoripper_core4adif6mapper5testss_48qso_to_adif_fields_emits_station_snapshot_fields0B9_
FN:1034,_RNCNvNtNtNtCs5kss5fdZ6xS_14qsoripper_core4adif6mapper5testss_53non_boolean_lotw_eqsl_values_preserved_for_round_trip0B9_
FN:1396,_RNCNvNtNtNtCs5kss5fdZ6xS_14qsoripper_core4adif6mapper5testss_56qso_to_adif_fields_emits_n_for_false_confirmation_fields0B9_
FN:1449,_RNCNvNtNtNtCs5kss5fdZ6xS_14qsoripper_core4adif6mapper5testss_57dedicated_fields_do_not_duplicate_overridden_extra_fields0B9_
FN:1454,_RNCNvNtNtNtCs5kss5fdZ6xS_14qsoripper_core4adif6mapper5testss_57dedicated_fields_do_not_duplicate_overridden_extra_fieldss0_0B9_
FN:1455,_RNCNvNtNtNtCs5kss5fdZ6xS_14qsoripper_core4adif6mapper5testss_57dedicated_fields_do_not_duplicate_overridden_extra_fieldss1_0B9_
FN:1459,_RNCNvNtNtNtCs5kss5fdZ6xS_14qsoripper_core4adif6mapper5testss_57dedicated_fields_do_not_duplicate_overridden_extra_fieldss2_0B9_
FN:1460,_RNCNvNtNtNtCs5kss5fdZ6xS_14qsoripper_core4adif6mapper5testss_57dedicated_fields_do_not_duplicate_overridden_extra_fieldss3_0B9_
FN:1464,_RNCNvNtNtNtCs5kss5fdZ6xS_14qsoripper_core4adif6mapper5testss_57dedicated_fields_do_not_duplicate_overridden_extra_fieldss4_0B9_
FN:1465,_RNCNvNtNtNtCs5kss5fdZ6xS_14qsoripper_core4adif6mapper5testss_57dedicated_fields_do_not_duplicate_overridden_extra_fieldss5_0B9_
FN:1469,_RNCNvNtNtNtCs5kss5fdZ6xS_14qsoripper_core4adif6mapper5testss_57dedicated_fields_do_not_duplicate_overridden_extra_fieldss6_0B9_
FN:1470,_RNCNvNtNtNtCs5kss5fdZ6xS_14qsoripper_core4adif6mapper5testss_57dedicated_fields_do_not_duplicate_overridden_extra_fieldss7_0B9_
FN:1474,_RNCNvNtNtNtCs5kss5fdZ6xS_14qsoripper_core4adif6mapper5testss_57dedicated_fields_do_not_duplicate_overridden_extra_fieldss8_0B9_
FN:1475,_RNCNvNtNtNtCs5kss5fdZ6xS_14qsoripper_core4adif6mapper5testss_57dedicated_fields_do_not_duplicate_overridden_extra_fieldss9_0B9_
FN:1450,_RNCNvNtNtNtCs5kss5fdZ6xS_14qsoripper_core4adif6mapper5testss_57dedicated_fields_do_not_duplicate_overridden_extra_fieldss_0B9_
FN:1479,_RNCNvNtNtNtCs5kss5fdZ6xS_14qsoripper_core4adif6mapper5testss_57dedicated_fields_do_not_duplicate_overridden_extra_fieldssa_0B9_
FN:1480,_RNCNvNtNtNtCs5kss5fdZ6xS_14qsoripper_core4adif6mapper5testss_57dedicated_fields_do_not_duplicate_overridden_extra_fieldssb_0B9_
FN:1484,_RNCNvNtNtNtCs5kss5fdZ6xS_14qsoripper_core4adif6mapper5testss_57dedicated_fields_do_not_duplicate_overridden_extra_fieldssc_0B9_
FN:1485,_RNCNvNtNtNtCs5kss5fdZ6xS_14qsoripper_core4adif6mapper5testss_57dedicated_fields_do_not_duplicate_overridden_extra_fieldssd_0B9_
FN:1489,_RNCNvNtNtNtCs5kss5fdZ6xS_14qsoripper_core4adif6mapper5testss_57dedicated_fields_do_not_duplicate_overridden_extra_fieldsse_0B9_
FN:1490,_RNCNvNtNtNtCs5kss5fdZ6xS_14qsoripper_core4adif6mapper5testss_57dedicated_fields_do_not_duplicate_overridden_extra_fieldssf_0B9_
FN:1494,_RNCNvNtNtNtCs5kss5fdZ6xS_14qsoripper_core4adif6mapper5testss_57dedicated_fields_do_not_duplicate_overridden_extra_fieldssg_0B9_
FN:1495,_RNCNvNtNtNtCs5kss5fdZ6xS_14qsoripper_core4adif6mapper5testss_57dedicated_fields_do_not_duplicate_overridden_extra_fieldssh_0B9_
FN:1361,_RNCNvNtNtNtCs5kss5fdZ6xS_14qsoripper_core4adif6mapper5testss_70qso_to_adif_fields_emits_contacted_operator_arrl_section_and_qsl_dates0B9_
FN:577,_RINvMNtNtCsgPbJLsevrBc_14qsoripper_core4adif6mapperNtB3_10AdifMapper13fields_to_adiNtNtCs2ocB3yIIgEv_5alloc6string6StringB1j_ECske1tuL0gxsN_11stress_test
FN:582,_RNCINvMNtNtCsgPbJLsevrBc_14qsoripper_core4adif6mapperNtB5_10AdifMapper13fields_to_adiNtNtCs2ocB3yIIgEv_5alloc6string6StringB1l_E0Cske1tuL0gxsN_11stress_test
FNDA:12,_RNvMNtNtCsgPbJLsevrBc_14qsoripper_core4adif6mapperNtB2_10AdifMapper10qso_to_adi
FNDA:47,_RNvMNtNtCsgPbJLsevrBc_14qsoripper_core4adif6mapperNtB2_10AdifMapper13record_to_qso
FNDA:8,_RNvMNtNtCsgPbJLsevrBc_14qsoripper_core4adif6mapperNtB2_10AdifMapper18qso_to_adif_fields
FNDA:20,_RNvMNtNtCsgPbJLsevrBc_14qsoripper_core4adif6mapperNtB2_10AdifMapper27qso_to_adif_fields_borrowed
FNDA:19,_RNvNtNtCsgPbJLsevrBc_14qsoripper_core4adif6mapper10mhz_to_khz
FNDA:2,_RNvNtNtCsgPbJLsevrBc_14qsoripper_core4adif6mapper16format_adif_date
FNDA:2006,_RNvNtNtCsgPbJLsevrBc_14qsoripper_core4adif6mapper19field_is_overridden
FNDA:37,_RNvNtNtCsgPbJLsevrBc_14qsoripper_core4adif6mapper19parse_adif_datetime
FNDA:0,_RNvNtNtCsgPbJLsevrBc_14qsoripper_core4adif6mapper19parse_adif_location
FNDA:12,_RNvNtNtCsgPbJLsevrBc_14qsoripper_core4adif6mapper20format_adif_datetime
FNDA:0,_RNvNtNtCsgPbJLsevrBc_14qsoripper_core4adif6mapper20format_adif_location
FNDA:4,_RNvNtNtCsgPbJLsevrBc_14qsoripper_core4adif6mapper22map_confirmation_field
FNDA:4,_RNvNtNtCsgPbJLsevrBc_14qsoripper_core4adif6mapper23parse_confirmation_bool
FNDA:80,_RNvNtNtCsgPbJLsevrBc_14qsoripper_core4adif6mapper23push_confirmation_field
FNDA:12,_RINvMNtNtCsgPbJLsevrBc_14qsoripper_core4adif6mapperNtB3_10AdifMapper13fields_to_adiINtNtCs2ocB3yIIgEv_5alloc6borrow3CoweEB1j_EB7_
FNDA:2045,_RINvNtNtCsgPbJLsevrBc_14qsoripper_core4adif6mapper10push_fieldReBY_EB6_
FNDA:25,_RINvNtNtCsgPbJLsevrBc_14qsoripper_core4adif6mapper10push_fieldReNtNtCs2ocB3yIIgEv_5alloc6string6StringEB6_
FNDA:1061,_RNCINvMNtNtCsgPbJLsevrBc_14qsoripper_core4adif6mapperNtB5_10AdifMapper13fields_to_adiINtNtCs2ocB3yIIgEv_5alloc6borrow3CoweEB1l_E0B9_
FNDA:0,_RNCNvMNtNtCsgPbJLsevrBc_14qsoripper_core4adif6mapperNtB4_10AdifMapper13record_to_qso0B8_
FNDA:1009,_RNCNvMNtNtCsgPbJLsevrBc_14qsoripper_core4adif6mapperNtB4_10AdifMapper18qso_to_adif_fields0B8_
FNDA:6,_RNCNvMNtNtCsgPbJLsevrBc_14qsoripper_core4adif6mapperNtB4_10AdifMapper27qso_to_adif_fields_borrowed0B8_
FNDA:14,_RNCNvMNtNtCsgPbJLsevrBc_14qsoripper_core4adif6mapperNtB4_10AdifMapper27qso_to_adif_fields_borroweds0_0B8_
FNDA:6,_RNCNvMNtNtCsgPbJLsevrBc_14qsoripper_core4adif6mapperNtB4_10AdifMapper27qso_to_adif_fields_borroweds1_0B8_
FNDA:0,_RNCNvMNtNtCsgPbJLsevrBc_14qsoripper_core4adif6mapperNtB4_10AdifMapper27qso_to_adif_fields_borroweds2_0B8_
FNDA:0,_RNCNvMNtNtCsgPbJLsevrBc_14qsoripper_core4adif6mapperNtB4_10AdifMapper27qso_to_adif_fields_borroweds3_0B8_
FNDA:6,_RNCNvMNtNtCsgPbJLsevrBc_14qsoripper_core4adif6mapperNtB4_10AdifMapper27qso_to_adif_fields_borroweds_0B8_
FNDA:0,_RNCNvNtNtCsgPbJLsevrBc_14qsoripper_core4adif6mapper19field_is_overridden0B7_
FNDA:0,_RNCNvNtNtCsgPbJLsevrBc_14qsoripper_core4adif6mapper19field_is_overriddens0_0B7_
FNDA:0,_RNCNvNtNtCsgPbJLsevrBc_14qsoripper_core4adif6mapper19field_is_overriddens1_0B7_
FNDA:0,_RNCNvNtNtCsgPbJLsevrBc_14qsoripper_core4adif6mapper19field_is_overriddens2_0B7_
FNDA:0,_RNCNvNtNtCsgPbJLsevrBc_14qsoripper_core4adif6mapper19field_is_overriddens3_0B7_
FNDA:0,_RNCNvNtNtCsgPbJLsevrBc_14qsoripper_core4adif6mapper19field_is_overriddens4_0B7_
FNDA:0,_RNCNvNtNtCsgPbJLsevrBc_14qsoripper_core4adif6mapper19field_is_overriddens_0B7_
FNDA:0,_RNCNvNtNtCsgPbJLsevrBc_14qsoripper_core4adif6mapper19field_is_overriddensa_0B7_
FNDA:5,_RNvNtNtNtCs5kss5fdZ6xS_14qsoripper_core4adif6mapper5tests16make_test_record
FNDA:1,_RNvNtNtNtCs5kss5fdZ6xS_14qsoripper_core4adif6mapper5testss_17adi_format_output
FNDA:1,_RNvNtNtNtCs5kss5fdZ6xS_14qsoripper_core4adif6mapper5testss_24frequency_to_khz_precise
FNDA:1,_RNvNtNtNtCs5kss5fdZ6xS_14qsoripper_core4adif6mapper5testss_24record_to_qso_qsl_fields
FNDA:1,_RNvNtNtNtCs5kss5fdZ6xS_14qsoripper_core4adif6mapper5testss_25adif_location_round_trips
FNDA:1,_RNvNtNtNtCs5kss5fdZ6xS_14qsoripper_core4adif6mapper5testss_25record_to_qso_core_fields
FNDA:1,_RNvNtNtNtCs5kss5fdZ6xS_14qsoripper_core4adif6mapper5testss_27frequency_to_khz_conversion
FNDA:1,_RNvNtNtNtCs5kss5fdZ6xS_14qsoripper_core4adif6mapper5testss_28record_to_qso_contest_fields
FNDA:1,_RNvNtNtNtCs5kss5fdZ6xS_14qsoripper_core4adif6mapper5testss_28record_to_qso_signal_reports
FNDA:1,_RNvNtNtNtCs5kss5fdZ6xS_14qsoripper_core4adif6mapper5testss_29non_ascii_date_does_not_panic
FNDA:1,_RNvNtNtNtCs5kss5fdZ6xS_14qsoripper_core4adif6mapper5testss_29qso_to_adif_fields_round_trip
FNDA:1,_RNvNtNtNtCs5kss5fdZ6xS_14qsoripper_core4adif6mapper5testss_30negative_frequency_is_rejected
FNDA:1,_RNvNtNtNtCs5kss5fdZ6xS_14qsoripper_core4adif6mapper5testss_30record_to_qso_timestamp_4digit
FNDA:1,_RNvNtNtNtCs5kss5fdZ6xS_14qsoripper_core4adif6mapper5testss_30record_to_qso_timestamp_6digit
FNDA:1,_RNvNtNtNtCs5kss5fdZ6xS_14qsoripper_core4adif6mapper5testss_32record_to_qso_maps_end_timestamp
FNDA:1,_RNvNtNtNtCs5kss5fdZ6xS_14qsoripper_core4adif6mapper5testss_32record_to_qso_propagation_fields
FNDA:1,_RNvNtNtNtCs5kss5fdZ6xS_14qsoripper_core4adif6mapper5testss_34import_only_mode_c4fm_sets_submode
FNDA:1,_RNvNtNtNtCs5kss5fdZ6xS_14qsoripper_core4adif6mapper5testss_35record_to_qso_geographic_enrichment
FNDA:1,_RNvNtNtNtCs5kss5fdZ6xS_14qsoripper_core4adif6mapper5testss_36negative_nanos_does_not_corrupt_date
FNDA:1,_RNvNtNtNtCs5kss5fdZ6xS_14qsoripper_core4adif6mapper5testss_36record_to_qso_extra_fields_preserved
FNDA:1,_RNvNtNtNtCs5kss5fdZ6xS_14qsoripper_core4adif6mapper5testss_37record_to_qso_generates_uuid_local_id
FNDA:1,_RNvNtNtNtCs5kss5fdZ6xS_14qsoripper_core4adif6mapper5testss_38qso_to_adif_fields_emits_end_timestamp
FNDA:1,_RNvNtNtNtCs5kss5fdZ6xS_14qsoripper_core4adif6mapper5testss_41record_to_qso_parses_three_digit_rst_tone
FNDA:1,_RNvNtNtNtCs5kss5fdZ6xS_14qsoripper_core4adif6mapper5testss_42operator_fallback_when_no_station_callsign
FNDA:1,_RNvNtNtNtCs5kss5fdZ6xS_14qsoripper_core4adif6mapper5testss_42record_to_qso_maps_station_snapshot_fields
FNDA:1,_RNvNtNtNtCs5kss5fdZ6xS_14qsoripper_core4adif6mapper5testss_46invalid_qsl_dates_fall_back_to_overflow_fields
FNDA:1,_RNvNtNtNtCs5kss5fdZ6xS_14qsoripper_core4adif6mapper5testss_48invalid_core_fields_are_preserved_for_round_trip
FNDA:1,_RNvNtNtNtCs5kss5fdZ6xS_14qsoripper_core4adif6mapper5testss_48qso_to_adif_fields_emits_station_snapshot_fields
FNDA:1,_RNvNtNtNtCs5kss5fdZ6xS_14qsoripper_core4adif6mapper5testss_48submode_aliases_in_mode_field_map_to_parent_mode
FNDA:1,_RNvNtNtNtCs5kss5fdZ6xS_14qsoripper_core4adif6mapper5testss_53non_boolean_lotw_eqsl_values_preserved_for_round_trip
FNDA:1,_RNvNtNtNtCs5kss5fdZ6xS_14qsoripper_core4adif6mapper5testss_56qso_to_adif_fields_emits_n_for_false_confirmation_fields
FNDA:1,_RNvNtNtNtCs5kss5fdZ6xS_14qsoripper_core4adif6mapper5testss_57dedicated_fields_do_not_duplicate_overridden_extra_fields
FNDA:1,_RNvNtNtNtCs5kss5fdZ6xS_14qsoripper_core4adif6mapper5testss_61dxcc_enrichment_populates_missing_country_continent_and_zones
FNDA:1,_RNvNtNtNtCs5kss5fdZ6xS_14qsoripper_core4adif6mapper5testss_70qso_to_adif_fields_emits_contacted_operator_arrl_section_and_qsl_dates
FNDA:0,_RNvMNtNtCs5kss5fdZ6xS_14qsoripper_core4adif6mapperNtB2_10AdifMapper10qso_to_adi
FNDA:29,_RNvMNtNtCs5kss5fdZ6xS_14qsoripper_core4adif6mapperNtB2_10AdifMapper13record_to_qso
FNDA:9,_RNvMNtNtCs5kss5fdZ6xS_14qsoripper_core4adif6mapperNtB2_10AdifMapper18qso_to_adif_fields
FNDA:9,_RNvMNtNtCs5kss5fdZ6xS_14qsoripper_core4adif6mapperNtB2_10AdifMapper27qso_to_adif_fields_borrowed
FNDA:12,_RNvNtNtCs5kss5fdZ6xS_14qsoripper_core4adif6mapper10mhz_to_khz
FNDA:12,_RNvNtNtCs5kss5fdZ6xS_14qsoripper_core4adif6mapper16format_adif_date
FNDA:14,_RNvNtNtCs5kss5fdZ6xS_14qsoripper_core4adif6mapper19field_is_overridden
FNDA:17,_RNvNtNtCs5kss5fdZ6xS_14qsoripper_core4adif6mapper19parse_adif_datetime
FNDA:4,_RNvNtNtCs5kss5fdZ6xS_14qsoripper_core4adif6mapper19parse_adif_location
FNDA:4,_RNvNtNtCs5kss5fdZ6xS_14qsoripper_core4adif6mapper20format_adif_datetime
FNDA:4,_RNvNtNtCs5kss5fdZ6xS_14qsoripper_core4adif6mapper20format_adif_location
FNDA:8,_RNvNtNtCs5kss5fdZ6xS_14qsoripper_core4adif6mapper22map_confirmation_field
FNDA:8,_RNvNtNtCs5kss5fdZ6xS_14qsoripper_core4adif6mapper23parse_confirmation_bool
FNDA:36,_RNvNtNtCs5kss5fdZ6xS_14qsoripper_core4adif6mapper23push_confirmation_field
FNDA:0,_RINvMNtNtCs5kss5fdZ6xS_14qsoripper_core4adif6mapperNtB3_10AdifMapper13fields_to_adiINtNtCs2ocB3yIIgEv_5alloc6borrow3CoweEB1j_EB7_
FNDA:1,_RINvMNtNtCs5kss5fdZ6xS_14qsoripper_core4adif6mapperNtB3_10AdifMapper13fields_to_adiNtNtCs2ocB3yIIgEv_5alloc6string6StringB1j_EB7_
FNDA:27,_RINvNtNtCs5kss5fdZ6xS_14qsoripper_core4adif6mapper10push_fieldReBY_EB6_
FNDA:24,_RINvNtNtCs5kss5fdZ6xS_14qsoripper_core4adif6mapper10push_fieldReNtNtCs2ocB3yIIgEv_5alloc6string6StringEB6_
FNDA:0,_RNCINvMNtNtCs5kss5fdZ6xS_14qsoripper_core4adif6mapperNtB5_10AdifMapper13fields_to_adiINtNtCs2ocB3yIIgEv_5alloc6borrow3CoweEB1l_E0B9_
FNDA:2,_RNCINvMNtNtCs5kss5fdZ6xS_14qsoripper_core4adif6mapperNtB5_10AdifMapper13fields_to_adiNtNtCs2ocB3yIIgEv_5alloc6string6StringB1l_E0B9_
FNDA:5,_RNCNvMNtNtCs5kss5fdZ6xS_14qsoripper_core4adif6mapperNtB4_10AdifMapper13record_to_qso0B8_
FNDA:51,_RNCNvMNtNtCs5kss5fdZ6xS_14qsoripper_core4adif6mapperNtB4_10AdifMapper18qso_to_adif_fields0B8_
FNDA:3,_RNCNvMNtNtCs5kss5fdZ6xS_14qsoripper_core4adif6mapperNtB4_10AdifMapper27qso_to_adif_fields_borrowed0B8_
FNDA:6,_RNCNvMNtNtCs5kss5fdZ6xS_14qsoripper_core4adif6mapperNtB4_10AdifMapper27qso_to_adif_fields_borroweds0_0B8_
FNDA:3,_RNCNvMNtNtCs5kss5fdZ6xS_14qsoripper_core4adif6mapperNtB4_10AdifMapper27qso_to_adif_fields_borroweds1_0B8_
FNDA:1,_RNCNvMNtNtCs5kss5fdZ6xS_14qsoripper_core4adif6mapperNtB4_10AdifMapper27qso_to_adif_fields_borroweds2_0B8_
FNDA:1,_RNCNvMNtNtCs5kss5fdZ6xS_14qsoripper_core4adif6mapperNtB4_10AdifMapper27qso_to_adif_fields_borroweds3_0B8_
FNDA:3,_RNCNvMNtNtCs5kss5fdZ6xS_14qsoripper_core4adif6mapperNtB4_10AdifMapper27qso_to_adif_fields_borroweds_0B8_
FNDA:1,_RNCNvNtNtCs5kss5fdZ6xS_14qsoripper_core4adif6mapper19field_is_overridden0B7_
FNDA:1,_RNCNvNtNtCs5kss5fdZ6xS_14qsoripper_core4adif6mapper19field_is_overriddens0_0B7_
FNDA:1,_RNCNvNtNtCs5kss5fdZ6xS_14qsoripper_core4adif6mapper19field_is_overriddens1_0B7_
FNDA:0,_RNCNvNtNtCs5kss5fdZ6xS_14qsoripper_core4adif6mapper19field_is_overriddens2_0B7_
FNDA:0,_RNCNvNtNtCs5kss5fdZ6xS_14qsoripper_core4adif6mapper19field_is_overriddens3_0B7_
FNDA:0,_RNCNvNtNtCs5kss5fdZ6xS_14qsoripper_core4adif6mapper19field_is_overriddens4_0B7_
FNDA:0,_RNCNvNtNtCs5kss5fdZ6xS_14qsoripper_core4adif6mapper19field_is_overriddens_0B7_
FNDA:1,_RNCNvNtNtCs5kss5fdZ6xS_14qsoripper_core4adif6mapper19field_is_overriddensa_0B7_
FNDA:1,_RNCNvNtNtNtCs5kss5fdZ6xS_14qsoripper_core4adif6mapper5testss_25record_to_qso_core_fields0B9_
FNDA:9,_RNCNvNtNtNtCs5kss5fdZ6xS_14qsoripper_core4adif6mapper5testss_29qso_to_adif_fields_round_trip0B9_
FNDA:1,_RNCNvNtNtNtCs5kss5fdZ6xS_14qsoripper_core4adif6mapper5testss_36negative_nanos_does_not_corrupt_date0B9_
FNDA:5,_RNCNvNtNtNtCs5kss5fdZ6xS_14qsoripper_core4adif6mapper5testss_38qso_to_adif_fields_emits_end_timestamp0B9_
FNDA:1,_RNCNvNtNtNtCs5kss5fdZ6xS_14qsoripper_core4adif6mapper5testss_42operator_fallback_when_no_station_callsign0B9_
FNDA:3,_RNCNvNtNtNtCs5kss5fdZ6xS_14qsoripper_core4adif6mapper5testss_46invalid_qsl_dates_fall_back_to_overflow_fields0B9_
FNDA:9,_RNCNvNtNtNtCs5kss5fdZ6xS_14qsoripper_core4adif6mapper5testss_48qso_to_adif_fields_emits_station_snapshot_fields0B9_
FNDA:3,_RNCNvNtNtNtCs5kss5fdZ6xS_14qsoripper_core4adif6mapper5testss_53non_boolean_lotw_eqsl_values_preserved_for_round_trip0B9_
FNDA:5,_RNCNvNtNtNtCs5kss5fdZ6xS_14qsoripper_core4adif6mapper5testss_56qso_to_adif_fields_emits_n_for_false_confirmation_fields0B9_
FNDA:11,_RNCNvNtNtNtCs5kss5fdZ6xS_14qsoripper_core4adif6mapper5testss_57dedicated_fields_do_not_duplicate_overridden_extra_fields0B9_
FNDA:11,_RNCNvNtNtNtCs5kss5fdZ6xS_14qsoripper_core4adif6mapper5testss_57dedicated_fields_do_not_duplicate_overridden_extra_fieldss0_0B9_
FNDA:1,_RNCNvNtNtNtCs5kss5fdZ6xS_14qsoripper_core4adif6mapper5testss_57dedicated_fields_do_not_duplicate_overridden_extra_fieldss1_0B9_
FNDA:11,_RNCNvNtNtNtCs5kss5fdZ6xS_14qsoripper_core4adif6mapper5testss_57dedicated_fields_do_not_duplicate_overridden_extra_fieldss2_0B9_
FNDA:1,_RNCNvNtNtNtCs5kss5fdZ6xS_14qsoripper_core4adif6mapper5testss_57dedicated_fields_do_not_duplicate_overridden_extra_fieldss3_0B9_
FNDA:11,_RNCNvNtNtNtCs5kss5fdZ6xS_14qsoripper_core4adif6mapper5testss_57dedicated_fields_do_not_duplicate_overridden_extra_fieldss4_0B9_
FNDA:1,_RNCNvNtNtNtCs5kss5fdZ6xS_14qsoripper_core4adif6mapper5testss_57dedicated_fields_do_not_duplicate_overridden_extra_fieldss5_0B9_
FNDA:11,_RNCNvNtNtNtCs5kss5fdZ6xS_14qsoripper_core4adif6mapper5testss_57dedicated_fields_do_not_duplicate_overridden_extra_fieldss6_0B9_
FNDA:1,_RNCNvNtNtNtCs5kss5fdZ6xS_14qsoripper_core4adif6mapper5testss_57dedicated_fields_do_not_duplicate_overridden_extra_fieldss7_0B9_
FNDA:11,_RNCNvNtNtNtCs5kss5fdZ6xS_14qsoripper_core4adif6mapper5testss_57dedicated_fields_do_not_duplicate_overridden_extra_fieldss8_0B9_
FNDA:1,_RNCNvNtNtNtCs5kss5fdZ6xS_14qsoripper_core4adif6mapper5testss_57dedicated_fields_do_not_duplicate_overridden_extra_fieldss9_0B9_
FNDA:1,_RNCNvNtNtNtCs5kss5fdZ6xS_14qsoripper_core4adif6mapper5testss_57dedicated_fields_do_not_duplicate_overridden_extra_fieldss_0B9_
FNDA:11,_RNCNvNtNtNtCs5kss5fdZ6xS_14qsoripper_core4adif6mapper5testss_57dedicated_fields_do_not_duplicate_overridden_extra_fieldssa_0B9_
FNDA:1,_RNCNvNtNtNtCs5kss5fdZ6xS_14qsoripper_core4adif6mapper5testss_57dedicated_fields_do_not_duplicate_overridden_extra_fieldssb_0B9_
FNDA:11,_RNCNvNtNtNtCs5kss5fdZ6xS_14qsoripper_core4adif6mapper5testss_57dedicated_fields_do_not_duplicate_overridden_extra_fieldssc_0B9_
FNDA:1,_RNCNvNtNtNtCs5kss5fdZ6xS_14qsoripper_core4adif6mapper5testss_57dedicated_fields_do_not_duplicate_overridden_extra_fieldssd_0B9_
FNDA:11,_RNCNvNtNtNtCs5kss5fdZ6xS_14qsoripper_core4adif6mapper5testss_57dedicated_fields_do_not_duplicate_overridden_extra_fieldsse_0B9_
FNDA:1,_RNCNvNtNtNtCs5kss5fdZ6xS_14qsoripper_core4adif6mapper5testss_57dedicated_fields_do_not_duplicate_overridden_extra_fieldssf_0B9_
FNDA:11,_RNCNvNtNtNtCs5kss5fdZ6xS_14qsoripper_core4adif6mapper5testss_57dedicated_fields_do_not_duplicate_overridden_extra_fieldssg_0B9_
FNDA:1,_RNCNvNtNtNtCs5kss5fdZ6xS_14qsoripper_core4adif6mapper5testss_57dedicated_fields_do_not_duplicate_overridden_extra_fieldssh_0B9_
FNDA:5,_RNCNvNtNtNtCs5kss5fdZ6xS_14qsoripper_core4adif6mapper5testss_70qso_to_adif_fields_emits_contacted_operator_arrl_section_and_qsl_dates0B9_
FNDA:8,_RINvMNtNtCsgPbJLsevrBc_14qsoripper_core4adif6mapperNtB3_10AdifMapper13fields_to_adiNtNtCs2ocB3yIIgEv_5alloc6string6StringB1j_ECske1tuL0gxsN_11stress_test
FNDA:1009,_RNCINvMNtNtCsgPbJLsevrBc_14qsoripper_core4adif6mapperNtB5_10AdifMapper13fields_to_adiNtNtCs2ocB3yIIgEv_5alloc6string6StringB1l_E0Cske1tuL0gxsN_11stress_test
FNF:97
FNH:93
DA:29,76
DA:30,76
DA:31,76
DA:32,76
DA:33,76
DA:34,76
DA:35,76
DA:38,76
DA:39,76
DA:40,76
DA:41,76
DA:43,535
DA:44,535
DA:45,535
DA:46,535
DA:48,535
DA:50,535
DA:51,461
DA:52,27
DA:53,27
DA:54,27
DA:55,27
DA:56,27
DA:57,27
DA:58,27
DA:59,434
DA:60,4
DA:61,4
DA:62,4
DA:63,4
DA:64,1
DA:65,1
DA:66,1
DA:67,1
DA:68,1
DA:69,1
DA:70,3
DA:72,430
DA:73,388
DA:74,347
DA:75,346
DA:76,345
DA:77,41
DA:78,36
DA:79,36
DA:80,5
DA:81,5
DA:83,304
DA:84,43
DA:85,41
DA:86,41
DA:87,5
DA:88,36
DA:89,2
DA:90,2
DA:91,2
DA:93,261
DA:94,256
DA:95,31
DA:96,31
DA:97,25
DA:98,25
DA:99,6
DA:100,6
DA:101,0
DA:102,0
DA:103,0
DA:106,225
DA:107,195
DA:108,169
DA:111,165
DA:112,160
DA:113,156
DA:114,152
DA:115,147
DA:116,6
DA:117,6
DA:118,6
DA:120,141
DA:121,141
DA:122,141
DA:123,136
DA:124,5
DA:125,5
DA:126,5
DA:128,131
DA:129,4
DA:130,4
DA:131,4
DA:133,127
DA:134,126
DA:135,123
DA:136,5
DA:137,5
DA:138,5
DA:139,5
DA:140,118
DA:141,10
DA:142,10
DA:143,10
DA:144,10
DA:145,108
DA:146,0
DA:147,0
DA:148,0
DA:149,0
DA:150,108
DA:151,4
DA:152,4
DA:153,4
DA:154,4
DA:155,104
DA:156,0
DA:157,0
DA:158,0
DA:159,0
DA:160,104
DA:161,1
DA:162,1
DA:163,1
DA:164,1
DA:165,1
DA:166,0
DA:167,0
DA:169,103
DA:170,0
DA:171,0
DA:172,0
DA:173,0
DA:174,0
DA:175,0
DA:176,0
DA:178,103
DA:179,0
DA:180,0
DA:181,0
DA:182,0
DA:183,0
DA:184,0
DA:185,0
DA:187,103
DA:188,1
DA:189,1
DA:190,1
DA:191,1
DA:192,1
DA:193,0
DA:194,0
DA:196,102
DA:197,1
DA:198,1
DA:199,1
DA:200,1
DA:201,1
DA:202,0
DA:203,0
DA:205,101
DA:206,5
DA:207,5
DA:208,5
DA:209,5
DA:212,96
DA:213,92
DA:214,88
DA:215,5
DA:216,5
DA:217,5
DA:218,0
DA:219,0
DA:221,83
DA:222,5
DA:223,5
DA:224,5
DA:225,0
DA:226,0
DA:228,78
DA:229,5
DA:230,5
DA:231,5
DA:232,5
DA:234,73
DA:235,1
DA:236,1
DA:237,1
DA:238,1
DA:240,72
DA:241,1
DA:242,1
DA:243,1
DA:244,1
DA:246,71
DA:247,5
DA:248,5
DA:249,5
DA:250,5
DA:254,66
DA:255,60
DA:256,54
DA:257,48
DA:258,48
DA:261,42
DA:262,38
DA:263,34
DA:266,30
DA:267,25
DA:270,25
DA:271,25
DA:272,25
DA:277,76
DA:278,42
DA:279,37
DA:280,37
DA:281,5
DA:282,5
DA:283,5
DA:284,4
DA:285,4
DA:286,4
DA:288,34
DA:289,0
DA:290,0
DA:291,34
DA:293,76
DA:294,1
DA:295,1
DA:296,1
DA:297,1
DA:298,1
DA:299,0
DA:300,0
DA:301,0
DA:302,0
DA:303,0
DA:304,0
DA:306,0
DA:307,0
DA:308,0
DA:309,0
DA:310,75
DA:311,0
DA:312,0
DA:313,75
DA:315,76
DA:317,76
DA:318,28
DA:319,48
DA:321,76
DA:322,76
DA:327,17
DA:328,17
DA:329,17
DA:330,1060
DA:331,17
DA:332,17
DA:336,12
DA:337,12
DA:338,12
DA:339,12
DA:343,29
DA:344,29
DA:345,29
DA:348,29
DA:349,29
DA:350,29
DA:351,29
DA:352,29
DA:353,9
DA:354,9
DA:355,9
DA:356,9
DA:357,9
DA:358,9
DA:359,20
DA:360,29
DA:361,27
DA:362,27
DA:363,29
DA:364,29
DA:365,29
DA:366,2
DA:367,2
DA:368,27
DA:371,29
DA:372,15
DA:373,6
DA:374,6
DA:375,9
DA:376,14
DA:377,29
DA:378,1
DA:379,1
DA:380,1
DA:381,1
DA:382,28
DA:385,29
DA:386,29
DA:387,5
DA:388,24
DA:391,29
DA:392,29
DA:393,5
DA:394,24
DA:395,29
DA:396,0
DA:397,29
DA:400,29
DA:401,3
DA:402,3
DA:403,3
DA:404,3
DA:405,3
DA:406,3
DA:407,3
DA:408,26
DA:411,29
DA:412,3
DA:413,26
DA:414,29
DA:415,3
DA:416,26
DA:417,29
DA:418,1
DA:419,28
DA:422,29
DA:423,3
DA:424,26
DA:425,29
DA:426,0
DA:427,29
DA:428,29
DA:429,0
DA:430,29
DA:431,29
DA:432,0
DA:433,29
DA:434,29
DA:435,0
DA:436,29
DA:437,29
DA:438,0
DA:439,29
DA:440,29
DA:441,0
DA:442,29
DA:443,29
DA:444,0
DA:445,29
DA:446,29
DA:447,0
DA:448,29
DA:449,29
DA:450,0
DA:451,29
DA:452,29
DA:453,0
DA:454,29
DA:455,29
DA:456,3
DA:457,26
DA:458,29
DA:459,9
DA:460,3
DA:461,6
DA:462,9
DA:463,5
DA:464,5
DA:465,9
DA:466,0
DA:467,9
DA:468,9
DA:469,2
DA:470,7
DA:471,9
DA:472,0
DA:473,9
DA:474,9
DA:475,0
DA:476,9
DA:477,9
DA:478,0
DA:479,9
DA:480,9
DA:481,0
DA:482,9
DA:483,9
DA:484,9
DA:485,9
DA:486,1
DA:487,1
DA:488,8
DA:489,9
DA:490,9
DA:491,9
DA:492,1
DA:493,1
DA:494,8
DA:495,9
DA:496,3
DA:497,6
DA:498,20
DA:501,29
DA:502,29
DA:503,29
DA:505,29
DA:506,0
DA:507,29
DA:509,29
DA:510,29
DA:511,29
DA:513,29
DA:514,0
DA:515,29
DA:516,29
DA:517,3
DA:518,26
DA:519,29
DA:520,3
DA:521,26
DA:523,29
DA:524,29
DA:525,29
DA:526,29
DA:529,29
DA:530,1
DA:531,28
DA:532,29
DA:533,0
DA:534,29
DA:535,29
DA:536,0
DA:537,29
DA:538,29
DA:539,0
DA:540,29
DA:541,29
DA:542,0
DA:543,29
DA:546,29
DA:547,0
DA:548,29
DA:549,29
DA:550,1
DA:551,28
DA:552,29
DA:553,1
DA:554,28
DA:557,29
DA:558,3
DA:559,26
DA:560,29
DA:561,0
DA:562,29
DA:565,2049
DA:566,2020
DA:567,10
DA:568,2010
DA:569,2010
DA:572,29
DA:573,29
DA:577,21
DA:578,21
DA:579,21
DA:580,21
DA:582,2072
DA:583,2072
DA:584,2072
DA:585,21
DA:587,2093
DA:588,2072
DA:589,2072
DA:590,2072
DA:591,2072
DA:592,2072
DA:593,2072
DA:594,2072
DA:595,2072
DA:596,2072
DA:597,21
DA:598,21
DA:599,21
DA:602,2121
DA:603,2121
DA:604,2121
DA:605,2121
DA:606,2121
DA:607,2121
DA:608,2121
DA:611,54
DA:612,54
DA:613,3
DA:614,51
DA:616,51
DA:617,41
DA:618,1
DA:619,40
DA:620,10
DA:622,50
DA:623,49
DA:624,48
DA:626,48
DA:628,48
DA:629,38
DA:631,17
DA:632,17
DA:633,17
DA:636,21
DA:637,21
DA:638,21
DA:639,21
DA:641,0
DA:644,10
DA:647,48
DA:648,48
DA:649,48
DA:650,48
DA:651,48
DA:652,48
DA:653,54
DA:656,16
DA:657,16
DA:658,11
DA:659,7
DA:660,7
DA:661,7
DA:662,16
DA:664,14
DA:665,14
DA:666,10
DA:667,10
DA:668,14
DA:670,4
DA:671,4
DA:672,4
DA:673,0
DA:674,4
DA:676,4
DA:677,4
DA:678,4
DA:679,0
DA:682,4
DA:683,0
DA:684,4
DA:686,4
DA:687,4
DA:688,4
DA:689,0
DA:690,4
DA:692,4
DA:693,4
DA:694,2
DA:696,2
DA:698,4
DA:699,4
DA:700,4
DA:702,4
DA:703,4
DA:704,0
DA:705,4
DA:707,4
DA:708,4
DA:709,0
DA:710,4
DA:712,4
DA:713,2
DA:714,0
DA:716,2
DA:718,2
DA:719,2
DA:721,0
DA:724,4
DA:725,4
DA:726,4
DA:727,4
DA:728,0
DA:729,0
DA:730,4
DA:731,4
DA:732,0
DA:733,4
DA:735,4
DA:736,4
DA:738,31
DA:739,31
DA:740,6
DA:741,25
DA:743,25
DA:744,25
DA:745,0
DA:746,25
DA:748,25
DA:749,31
DA:751,12
DA:752,12
DA:753,8
DA:754,4
DA:755,2
DA:757,2
DA:759,12
DA:761,12
DA:762,12
DA:763,12
DA:764,12
DA:765,12
DA:766,12
DA:767,12
DA:768,10
DA:769,10
DA:770,2
DA:771,2
DA:772,12
DA:774,116
DA:775,116
DA:776,116
DA:777,116
DA:778,116
DA:779,116
DA:780,3
DA:781,3
DA:782,110
DA:784,116
DA:786,2020
DA:787,2020
DA:788,2020
DA:789,2020
DA:790,2020
DA:791,2020
DA:792,2
DA:793,2018
DA:794,0
DA:795,2018
DA:796,0
DA:797,2018
DA:798,2
DA:799,2016
DA:800,1
DA:801,1
DA:802,1
DA:803,2015
DA:804,0
DA:805,0
DA:806,0
DA:807,2015
DA:808,1
DA:809,2014
DA:810,1
DA:811,2013
DA:812,1
DA:813,1
DA:814,1
DA:815,2012
DA:816,1
DA:817,1
DA:818,1
DA:819,2011
DA:820,0
DA:821,0
DA:822,0
DA:823,2011
DA:824,0
DA:825,0
DA:826,0
DA:827,2011
DA:828,0
DA:829,0
DA:830,0
DA:831,2011
DA:832,0
DA:833,0
DA:834,0
DA:835,2011
DA:836,0
DA:837,0
DA:838,0
DA:839,2011
DA:840,0
DA:841,0
DA:842,0
DA:843,2011
DA:844,0
DA:845,0
DA:846,0
DA:847,2011
DA:848,0
DA:849,0
DA:850,0
DA:851,2011
DA:852,1
DA:853,1
DA:854,1
DA:855,2010
DA:856,2
DA:857,2
DA:858,2
DA:859,2
DA:860,2008
DA:861,2
DA:862,2
DA:863,2
DA:864,2
DA:865,2006
DA:866,0
DA:868,2006
DA:870,2020
DA:878,5
DA:879,5
DA:880,5
DA:881,5
DA:882,5
DA:883,5
DA:884,5
DA:885,5
DA:886,5
DA:887,5
DA:888,5
DA:889,5
DA:890,5
DA:893,1
DA:894,1
DA:896,1
DA:897,1
DA:900,1
DA:901,1
DA:902,1
DA:904,1
DA:905,1
DA:906,1
DA:907,1
DA:908,1
DA:909,1
DA:910,1
DA:911,1
DA:912,1
DA:913,1
DA:916,1
DA:919,1
DA:920,1
DA:921,1
DA:923,1
DA:924,1
DA:925,1
DA:926,1
DA:927,1
DA:928,1
DA:929,1
DA:930,1
DA:931,1
DA:932,1
DA:933,1
DA:936,1
DA:937,1
DA:938,1
DA:939,1
DA:941,1
DA:942,1
DA:943,1
DA:944,1
DA:945,1
DA:946,1
DA:947,1
DA:950,1
DA:951,1
DA:952,1
DA:953,1
DA:955,1
DA:956,1
DA:957,1
DA:958,1
DA:959,1
DA:960,1
DA:963,1
DA:964,1
DA:965,1
DA:966,1
DA:967,1
DA:968,1
DA:969,1
DA:970,1
DA:971,1
DA:972,1
DA:973,1
DA:974,1
DA:977,1
DA:978,1
DA:979,1
DA:980,1
DA:981,1
DA:982,1
DA:983,1
DA:984,1
DA:985,1
DA:986,1
DA:987,1
DA:989,1
DA:990,1
DA:992,1
DA:994,1
DA:996,1
DA:998,1
DA:999,1
DA:1000,1
DA:1001,1
DA:1002,1
DA:1003,1
DA:1006,1
DA:1007,1
DA:1010,1
DA:1013,1
DA:1014,1
DA:1015,1
DA:1016,1
DA:1017,1
DA:1019,1
DA:1020,1
DA:1021,1
DA:1022,1
DA:1023,1
DA:1026,1
DA:1027,1
DA:1031,1
DA:1032,1
DA:1033,1
DA:1034,3
DA:1035,1
DA:1037,1
DA:1038,1
DA:1039,1
DA:1042,1
DA:1043,1
DA:1044,1
DA:1045,1
DA:1046,1
DA:1047,1
DA:1048,1
DA:1050,1
DA:1051,1
DA:1052,1
DA:1053,1
DA:1054,1
DA:1055,1
DA:1058,1
DA:1059,1
DA:1060,1
DA:1061,1
DA:1062,1
DA:1063,1
DA:1064,1
DA:1065,1
DA:1067,1
DA:1069,1
DA:1070,1
DA:1071,1
DA:1072,1
DA:1073,1
DA:1074,1
DA:1077,1
DA:1078,1
DA:1081,1
DA:1082,1
DA:1085,1
DA:1086,1
DA:1089,1
DA:1090,1
DA:1093,1
DA:1094,1
DA:1095,1
DA:1096,1
DA:1097,1
DA:1098,1
DA:1099,1
DA:1100,1
DA:1101,1
DA:1102,1
DA:1103,1
DA:1104,1
DA:1105,1
DA:1107,1
DA:1108,1
DA:1109,1
DA:1110,1
DA:1111,1
DA:1112,1
DA:1113,1
DA:1114,1
DA:1115,1
DA:1116,1
DA:1117,1
DA:1118,1
DA:1121,1
DA:1122,1
DA:1123,1
DA:1124,1
DA:1126,1
DA:1127,1
DA:1128,1
DA:1129,1
DA:1130,1
DA:1131,1
DA:1132,1
DA:1135,1
DA:1136,1
DA:1137,1
DA:1138,1
DA:1139,1
DA:1140,1
DA:1141,1
DA:1142,1
DA:1143,1
DA:1144,1
DA:1145,1
DA:1146,1
DA:1148,1
DA:1149,1
DA:1151,1
DA:1152,1
DA:1153,1
DA:1154,1
DA:1155,1
DA:1156,1
DA:1157,1
DA:1158,1
DA:1159,1
DA:1160,1
DA:1161,1
DA:1164,1
DA:1165,1
DA:1166,1
DA:1167,1
DA:1168,1
DA:1169,1
DA:1171,1
DA:1172,1
DA:1173,1
DA:1174,1
DA:1175,1
DA:1178,1
DA:1179,1
DA:1180,1
DA:1181,1
DA:1182,1
DA:1183,1
DA:1184,1
DA:1186,1
DA:1187,1
DA:1188,1
DA:1191,1
DA:1192,1
DA:1195,1
DA:1196,1
DA:1199,1
DA:1200,1
DA:1201,1
DA:1202,1
DA:1205,1
DA:1208,1
DA:1209,1
DA:1210,1
DA:1211,1
DA:1213,1
DA:1214,1
DA:1215,1
DA:1216,1
DA:1219,1
DA:1220,4
DA:1221,1
DA:1222,1
DA:1223,1
DA:1224,1
DA:1226,4
DA:1227,4
DA:1228,4
DA:1230,4
DA:1231,4
DA:1232,4
DA:1233,0
DA:1235,4
DA:1236,4
DA:1237,4
DA:1238,0
DA:1241,1
DA:1244,1
DA:1245,1
DA:1246,1
DA:1247,1
DA:1250,1
DA:1251,1
DA:1252,9
DA:1253,1
DA:1255,1
DA:1256,1
DA:1257,1
DA:1258,1
DA:1259,1
DA:1260,1
DA:1261,1
DA:1264,1
DA:1265,1
DA:1266,1
DA:1267,1
DA:1268,1
DA:1269,1
DA:1270,1
DA:1272,1
DA:1273,1
DA:1274,1
DA:1275,1
DA:1276,1
DA:1277,1
DA:1278,1
DA:1279,1
DA:1282,1
DA:1283,1
DA:1284,1
DA:1285,1
DA:1286,1
DA:1287,1
DA:1288,1
DA:1289,1
DA:1290,1
DA:1291,1
DA:1292,1
DA:1293,1
DA:1294,1
DA:1296,1
DA:1297,1
DA:1298,1
DA:1299,5
DA:1300,1
DA:1302,1
DA:1303,1
DA:1304,1
DA:1307,1
DA:1308,1
DA:1309,1
DA:1310,1
DA:1311,1
DA:1312,1
DA:1313,1
DA:1314,1
DA:1315,1
DA:1316,1
DA:1317,1
DA:1318,1
DA:1319,1
DA:1320,1
DA:1321,1
DA:1322,1
DA:1323,1
DA:1325,1
DA:1326,1
DA:1327,1
DA:1328,9
DA:1329,1
DA:1331,1
DA:1332,1
DA:1333,1
DA:1334,1
DA:1335,1
DA:1336,1
DA:1337,1
DA:1338,1
DA:1339,1
DA:1342,1
DA:1343,1
DA:1344,1
DA:1345,1
DA:1346,1
DA:1347,1
DA:1348,1
DA:1349,1
DA:1350,1
DA:1351,1
DA:1352,1
DA:1353,1
DA:1354,1
DA:1355,1
DA:1356,1
DA:1358,1
DA:1359,1
DA:1360,1
DA:1361,5
DA:1362,1
DA:1364,1
DA:1365,1
DA:1366,1
DA:1367,1
DA:1368,1
DA:1371,1
DA:1372,1
DA:1373,1
DA:1374,1
DA:1376,1
DA:1377,1
DA:1378,1
DA:1379,1
DA:1380,1
DA:1383,1
DA:1384,1
DA:1385,1
DA:1386,1
DA:1387,1
DA:1388,1
DA:1389,1
DA:1390,1
DA:1391,1
DA:1393,1
DA:1394,1
DA:1395,1
DA:1396,5
DA:1397,1
DA:1399,1
DA:1400,1
DA:1401,1
DA:1402,1
DA:1403,1
DA:1406,1
DA:1407,1
DA:1408,1
DA:1409,1
DA:1410,1
DA:1411,1
DA:1412,1
DA:1413,1
DA:1414,1
DA:1415,1
DA:1416,1
DA:1417,1
DA:1418,1
DA:1419,1
DA:1420,1
DA:1421,1
DA:1422,1
DA:1423,1
DA:1424,1
DA:1425,1
DA:1426,1
DA:1427,1
DA:1428,1
DA:1429,1
DA:1430,1
DA:1431,1
DA:1432,1
DA:1433,1
DA:1434,1
DA:1435,1
DA:1436,1
DA:1437,1
DA:1438,1
DA:1439,1
DA:1440,1
DA:1441,1
DA:1442,1
DA:1443,1
DA:1444,1
DA:1446,1
DA:1447,1
DA:1448,1
DA:1449,11
DA:1450,1
DA:1451,1
DA:1452,1
DA:1453,1
DA:1454,11
DA:1455,1
DA:1456,1
DA:1457,1
DA:1458,1
DA:1459,11
DA:1460,1
DA:1461,1
DA:1462,1
DA:1463,1
DA:1464,11
DA:1465,1
DA:1466,1
DA:1467,1
DA:1468,1
DA:1469,11
DA:1470,1
DA:1471,1
DA:1472,1
DA:1473,1
DA:1474,11
DA:1475,1
DA:1476,1
DA:1477,1
DA:1478,1
DA:1479,11
DA:1480,1
DA:1481,1
DA:1482,1
DA:1483,1
DA:1484,11
DA:1485,1
DA:1486,1
DA:1487,1
DA:1488,1
DA:1489,11
DA:1490,1
DA:1491,1
DA:1492,1
DA:1493,1
DA:1494,11
DA:1495,1
DA:1496,1
DA:1498,1
DA:1499,1
DA:1500,1
DA:1501,1
DA:1502,1
DA:1503,1
DA:1504,1
DA:1505,1
DA:1506,1
DA:1507,1
DA:1508,1
DA:1511,1
DA:1512,1
DA:1513,1
DA:1514,1
DA:1517,1
DA:1518,1
DA:1519,1
DA:1520,1
DA:1521,1
DA:1522,1
DA:1525,1
DA:1528,1
DA:1529,1
DA:1530,1
DA:1531,1
DA:1533,1
DA:1534,1
DA:1535,1
DA:1538,1
DA:1539,1
DA:1540,1
DA:1541,1
DA:1543,1
DA:1544,1
DA:1545,1
DA:1548,1
DA:1549,1
DA:1550,1
DA:1551,1
DA:1553,1
DA:1554,1
DA:1556,0
DA:1558,1
DA:1561,1
DA:1562,1
DA:1563,1
DA:1564,1
DA:1565,1
DA:1566,1
DA:1567,1
DA:1568,1
DA:1569,1
DA:1571,1
DA:1572,1
DA:1573,1
DA:1574,1
DA:1575,1
DA:1577,1
DA:1578,1
DA:1580,0
DA:1582,1
DA:1585,1
DA:1586,1
DA:1587,1
DA:1588,1
DA:1589,1
DA:1590,1
DA:1591,1
DA:1592,1
DA:1593,1
DA:1594,1
DA:1595,1
DA:1596,1
DA:1597,1
DA:1598,1
DA:1599,1
DA:1600,1
DA:1601,1
DA:1602,1
DA:1603,1
DA:1605,1
DA:1606,1
DA:1607,1
DA:1608,3
DA:1609,1
DA:1611,1
DA:1612,1
DA:1613,1
DA:1616,1
DA:1619,1
DA:1620,1
DA:1621,1
DA:1622,0
DA:1624,1
DA:1627,1
DA:1628,1
DA:1629,1
DA:1631,1
DA:1632,1
DA:1633,1
DA:1635,1
DA:1636,1
DA:1637,1
DA:1639,1
BRF:0
BRH:0
LF:1356
LH:1224
end_of_record
SF:C:\Users\randy\Git\qsoripper-adif-refresh\src\rust\qsoripper-core\src\adif\mod.rs
FN:24,_RNCNCNvNtCsgPbJLsevrBc_14qsoripper_core4adif14parse_adi_qsos00B7_
FN:19,_RNCNvNtCsgPbJLsevrBc_14qsoripper_core4adif14parse_adi_qsos0B5_
FN:70,_RNCNvNtNtCs5kss5fdZ6xS_14qsoripper_core4adif5testss_35parse_adi_qsos_skips_header_records0B7_
FN:24,_RNCNCNvNtCs5kss5fdZ6xS_14qsoripper_core4adif14parse_adi_qsos00B7_
FN:19,_RNCNvNtCs5kss5fdZ6xS_14qsoripper_core4adif14parse_adi_qsos0B5_
FN:51,_RNvNtCs5kss5fdZ6xS_14qsoripper_core4adif11adif_header
FN:19,_RNvNtCs5kss5fdZ6xS_14qsoripper_core4adif14parse_adi_qsos
FN:37,_RNvNtCs5kss5fdZ6xS_14qsoripper_core4adif18serialize_adi_qsos
FN:70,_RNvNtNtCs5kss5fdZ6xS_14qsoripper_core4adif5testss_35parse_adi_qsos_skips_header_records
FN:79,_RNvNtNtCs5kss5fdZ6xS_14qsoripper_core4adif5testss_37serialize_adi_qsos_can_include_header
FN:24,_RNCNCNvNtCsgPbJLsevrBc_14qsoripper_core4adif14parse_adi_qsos00CsujLUsjorcV_16qsoripper_server
FN:19,_RNCNvNtCsgPbJLsevrBc_14qsoripper_core4adif14parse_adi_qsos0CsujLUsjorcV_16qsoripper_server
FN:51,_RNvNtCsgPbJLsevrBc_14qsoripper_core4adif11adif_header
FN:19,_RNvNtCsgPbJLsevrBc_14qsoripper_core4adif14parse_adi_qsos
FN:37,_RNvNtCsgPbJLsevrBc_14qsoripper_core4adif18serialize_adi_qsos
FN:24,_RNCNCNvNtCsgPbJLsevrBc_14qsoripper_core4adif14parse_adi_qsos00Cske1tuL0gxsN_11stress_test
FN:19,_RNCNvNtCsgPbJLsevrBc_14qsoripper_core4adif14parse_adi_qsos0Cske1tuL0gxsN_11stress_test
FNDA:0,_RNCNCNvNtCsgPbJLsevrBc_14qsoripper_core4adif14parse_adi_qsos00B7_
FNDA:0,_RNCNvNtCsgPbJLsevrBc_14qsoripper_core4adif14parse_adi_qsos0B5_
FNDA:1,_RNCNvNtNtCs5kss5fdZ6xS_14qsoripper_core4adif5testss_35parse_adi_qsos_skips_header_records0B7_
FNDA:0,_RNCNCNvNtCs5kss5fdZ6xS_14qsoripper_core4adif14parse_adi_qsos00B7_
FNDA:1,_RNCNvNtCs5kss5fdZ6xS_14qsoripper_core4adif14parse_adi_qsos0B5_
FNDA:1,_RNvNtCs5kss5fdZ6xS_14qsoripper_core4adif11adif_header
FNDA:1,_RNvNtCs5kss5fdZ6xS_14qsoripper_core4adif14parse_adi_qsos
FNDA:1,_RNvNtCs5kss5fdZ6xS_14qsoripper_core4adif18serialize_adi_qsos
FNDA:1,_RNvNtNtCs5kss5fdZ6xS_14qsoripper_core4adif5testss_35parse_adi_qsos_skips_header_records
FNDA:1,_RNvNtNtCs5kss5fdZ6xS_14qsoripper_core4adif5testss_37serialize_adi_qsos_can_include_header
FNDA:0,_RNCNCNvNtCsgPbJLsevrBc_14qsoripper_core4adif14parse_adi_qsos00CsujLUsjorcV_16qsoripper_server
FNDA:10,_RNCNvNtCsgPbJLsevrBc_14qsoripper_core4adif14parse_adi_qsos0CsujLUsjorcV_16qsoripper_server
FNDA:9,_RNvNtCsgPbJLsevrBc_14qsoripper_core4adif11adif_header
FNDA:27,_RNvNtCsgPbJLsevrBc_14qsoripper_core4adif14parse_adi_qsos
FNDA:9,_RNvNtCsgPbJLsevrBc_14qsoripper_core4adif18serialize_adi_qsos
FNDA:2,_RNCNCNvNtCsgPbJLsevrBc_14qsoripper_core4adif14parse_adi_qsos00Cske1tuL0gxsN_11stress_test
FNDA:17,_RNCNvNtCsgPbJLsevrBc_14qsoripper_core4adif14parse_adi_qsos0Cske1tuL0gxsN_11stress_test
FNF:8
FNH:8
DA:19,28
DA:20,28
DA:21,28
DA:23,52
DA:24,26
DA:25,24
DA:26,3
DA:27,21
DA:29,21
DA:32,26
DA:33,28
DA:37,10
DA:38,10
DA:40,10
DA:41,10
DA:42,10
DA:44,19
DA:45,9
DA:46,9
DA:48,10
DA:49,10
DA:51,10
DA:52,10
DA:53,30
DA:54,10
DA:55,10
DA:56,10
DA:57,30
DA:58,30
DA:59,30
DA:60,10
DA:61,10
DA:62,10
DA:70,1
DA:71,1
DA:73,1
DA:75,1
DA:76,1
DA:79,1
DA:80,1
DA:81,1
DA:83,1
DA:84,1
DA:85,1
DA:86,1
BRF:0
BRH:0
LF:49
LH:49
end_of_record
SF:C:\Users\randy\Git\qsoripper-adif-refresh\src\rust\qsoripper-core\src\adif\normalize.rs
FN:82,_RNvNtNtCsgPbJLsevrBc_14qsoripper_core4adif9normalize15string_is_blank
FN:60,_RNvNtNtCsgPbJLsevrBc_14qsoripper_core4adif9normalize16enrich_from_dxcc
FN:38,_RNvNtNtCsgPbJLsevrBc_14qsoripper_core4adif9normalize16parse_rst_report
FN:22,_RNCNCNCNvNtNtCsgPbJLsevrBc_14qsoripper_core4adif9normalize13DXCC_ENTITIES000Bb_
FN:23,_RNCNCNCNvNtNtCsgPbJLsevrBc_14qsoripper_core4adif9normalize13DXCC_ENTITIES00s_0Bb_
FN:17,_RNCNCNvNtNtCsgPbJLsevrBc_14qsoripper_core4adif9normalize13DXCC_ENTITIES00B9_
FN:14,_RNCNvNtNtCsgPbJLsevrBc_14qsoripper_core4adif9normalize13DXCC_ENTITIES0B7_
FN:83,_RNCNvNtNtCsgPbJLsevrBc_14qsoripper_core4adif9normalize15string_is_blank0B7_
FN:42,_RNCNvNtNtCsgPbJLsevrBc_14qsoripper_core4adif9normalize16parse_rst_report0B7_
FN:82,_RNvNtNtCs5kss5fdZ6xS_14qsoripper_core4adif9normalize15string_is_blank
FN:60,_RNvNtNtCs5kss5fdZ6xS_14qsoripper_core4adif9normalize16enrich_from_dxcc
FN:38,_RNvNtNtCs5kss5fdZ6xS_14qsoripper_core4adif9normalize16parse_rst_report
FN:22,_RNCNCNCNvNtNtCs5kss5fdZ6xS_14qsoripper_core4adif9normalize13DXCC_ENTITIES000Bb_
FN:23,_RNCNCNCNvNtNtCs5kss5fdZ6xS_14qsoripper_core4adif9normalize13DXCC_ENTITIES00s_0Bb_
FN:17,_RNCNCNvNtNtCs5kss5fdZ6xS_14qsoripper_core4adif9normalize13DXCC_ENTITIES00B9_
FN:14,_RNCNvNtNtCs5kss5fdZ6xS_14qsoripper_core4adif9normalize13DXCC_ENTITIES0B7_
FN:83,_RNCNvNtNtCs5kss5fdZ6xS_14qsoripper_core4adif9normalize15string_is_blank0B7_
FN:42,_RNCNvNtNtCs5kss5fdZ6xS_14qsoripper_core4adif9normalize16parse_rst_report0B7_
FN:92,_RNvNtNtNtCs5kss5fdZ6xS_14qsoripper_core4adif9normalize5testss_38rst_parser_extracts_numeric_components
FN:100,_RNvNtNtNtCs5kss5fdZ6xS_14qsoripper_core4adif9normalize5testss_42dxcc_enrichment_preserves_existing_country
FN:116,_RNvNtNtNtCs5kss5fdZ6xS_14qsoripper_core4adif9normalize5testss_44dxcc_enrichment_ignores_unknown_entity_codes
FNDA:6,_RNvNtNtCsgPbJLsevrBc_14qsoripper_core4adif9normalize15string_is_blank
FNDA:47,_RNvNtNtCsgPbJLsevrBc_14qsoripper_core4adif9normalize16enrich_from_dxcc
FNDA:39,_RNvNtNtCsgPbJLsevrBc_14qsoripper_core4adif9normalize16parse_rst_report
FNDA:340,_RNCNCNCNvNtNtCsgPbJLsevrBc_14qsoripper_core4adif9normalize13DXCC_ENTITIES000Bb_
FNDA:340,_RNCNCNCNvNtNtCsgPbJLsevrBc_14qsoripper_core4adif9normalize13DXCC_ENTITIES00s_0Bb_
FNDA:340,_RNCNCNvNtNtCsgPbJLsevrBc_14qsoripper_core4adif9normalize13DXCC_ENTITIES00B9_
FNDA:1,_RNCNvNtNtCsgPbJLsevrBc_14qsoripper_core4adif9normalize13DXCC_ENTITIES0B7_
FNDA:6,_RNCNvNtNtCsgPbJLsevrBc_14qsoripper_core4adif9normalize15string_is_blank0B7_
FNDA:117,_RNCNvNtNtCsgPbJLsevrBc_14qsoripper_core4adif9normalize16parse_rst_report0B7_
FNDA:8,_RNvNtNtCs5kss5fdZ6xS_14qsoripper_core4adif9normalize15string_is_blank
FNDA:31,_RNvNtNtCs5kss5fdZ6xS_14qsoripper_core4adif9normalize16enrich_from_dxcc
FNDA:18,_RNvNtNtCs5kss5fdZ6xS_14qsoripper_core4adif9normalize16parse_rst_report
FNDA:340,_RNCNCNCNvNtNtCs5kss5fdZ6xS_14qsoripper_core4adif9normalize13DXCC_ENTITIES000Bb_
FNDA:340,_RNCNCNCNvNtNtCs5kss5fdZ6xS_14qsoripper_core4adif9normalize13DXCC_ENTITIES00s_0Bb_
FNDA:340,_RNCNCNvNtNtCs5kss5fdZ6xS_14qsoripper_core4adif9normalize13DXCC_ENTITIES00B9_
FNDA:1,_RNCNvNtNtCs5kss5fdZ6xS_14qsoripper_core4adif9normalize13DXCC_ENTITIES0B7_
FNDA:5,_RNCNvNtNtCs5kss5fdZ6xS_14qsoripper_core4adif9normalize15string_is_blank0B7_
FNDA:54,_RNCNvNtNtCs5kss5fdZ6xS_14qsoripper_core4adif9normalize16parse_rst_report0B7_
FNDA:1,_RNvNtNtNtCs5kss5fdZ6xS_14qsoripper_core4adif9normalize5testss_38rst_parser_extracts_numeric_components
FNDA:1,_RNvNtNtNtCs5kss5fdZ6xS_14qsoripper_core4adif9normalize5testss_42dxcc_enrichment_preserves_existing_country
FNDA:1,_RNvNtNtNtCs5kss5fdZ6xS_14qsoripper_core4adif9normalize5testss_44dxcc_enrichment_ignores_unknown_entity_codes
FNF:12
FNH:12
DA:14,2
DA:15,2
DA:16,2
DA:17,680
DA:18,680
DA:19,680
DA:20,680
DA:21,680
DA:22,680
DA:23,680
DA:25,680
DA:26,680
DA:27,680
DA:28,680
DA:29,680
DA:30,680
DA:31,680
DA:32,680
DA:33,680
DA:34,680
DA:35,2
DA:36,2
DA:38,57
DA:39,57
DA:40,57
DA:42,171
DA:43,171
DA:44,127
DA:45,9
DA:46,118
DA:48,118
DA:49,118
DA:50,171
DA:52,57
DA:53,57
DA:54,57
DA:55,57
DA:56,57
DA:57,57
DA:58,57
DA:60,78
DA:61,78
DA:62,70
DA:64,8
DA:65,1
DA:68,7
DA:69,1
DA:70,6
DA:71,7
DA:72,2
DA:73,5
DA:74,7
DA:75,2
DA:76,5
DA:77,7
DA:78,3
DA:79,4
DA:80,78
DA:82,14
DA:83,14
DA:84,14
DA:92,1
DA:93,1
DA:94,1
DA:95,1
DA:96,1
DA:97,1
DA:100,1
DA:101,1
DA:102,1
DA:103,1
DA:104,1
DA:105,1
DA:107,1
DA:109,1
DA:110,1
DA:111,1
DA:112,1
DA:113,1
DA:116,1
DA:117,1
DA:118,1
DA:119,1
DA:120,1
DA:122,1
DA:124,1
DA:125,1
DA:126,1
DA:127,1
DA:128,1
BRF:0
BRH:0
LF:95
LH:95
end_of_record
SF:C:\Users\randy\Git\qsoripper-adif-refresh\src\rust\qsoripper-core\src\application\logbook.rs
FN:615,_RNCNCNvNtNtCsgPbJLsevrBc_14qsoripper_core11application7logbook18merge_optional_str00B9_
FN:671,_RNCNCNvNtNtCsgPbJLsevrBc_14qsoripper_core11application7logbook24non_empty_trimmed_option00B9_
FN:613,_RNCNvNtNtCsgPbJLsevrBc_14qsoripper_core11application7logbook18merge_optional_str0B7_
FN:622,_RNCNvNtNtCsgPbJLsevrBc_14qsoripper_core11application7logbook18merge_optional_u320B7_
FN:628,_RNCNvNtNtCsgPbJLsevrBc_14qsoripper_core11application7logbook18merge_optional_u640B7_
FN:463,_RNCNvNtNtCsgPbJLsevrBc_14qsoripper_core11application7logbook21invalid_import_reason0B7_
FN:497,_RNCNvNtNtCsgPbJLsevrBc_14qsoripper_core11application7logbook21station_profile_label0B7_
FN:498,_RNCNvNtNtCsgPbJLsevrBc_14qsoripper_core11application7logbook21station_profile_labels_0B7_
FN:669,_RNCNvNtNtCsgPbJLsevrBc_14qsoripper_core11application7logbook24non_empty_trimmed_option0B7_
FN:126,_RNvMNtNtCsgPbJLsevrBc_14qsoripper_core11application7logbookNtB2_13LogbookEngine10delete_qso
FN:95,_RNvMNtNtCsgPbJLsevrBc_14qsoripper_core11application7logbookNtB2_13LogbookEngine10update_qso
FN:180,_RNvMNtNtCsgPbJLsevrBc_14qsoripper_core11application7logbookNtB2_13LogbookEngine15get_sync_status
FN:196,_RNvMNtNtCsgPbJLsevrBc_14qsoripper_core11application7logbookNtB2_13LogbookEngine16import_adif_qsos
FN:30,_RNvMNtNtCsgPbJLsevrBc_14qsoripper_core11application7logbookNtB2_13LogbookEngine20storage_backend_name
FN:232,_RNvMNtNtCsgPbJLsevrBc_14qsoripper_core11application7logbookNtB2_13LogbookEngine20update_sync_metadata
FN:302,_RNvMNtNtCsgPbJLsevrBc_14qsoripper_core11application7logbookNtB2_13LogbookEngine21find_duplicate_import
FN:240,_RNvMNtNtCsgPbJLsevrBc_14qsoripper_core11application7logbookNtB2_13LogbookEngine22import_single_adif_qso
FN:65,_RNvMNtNtCsgPbJLsevrBc_14qsoripper_core11application7logbookNtB2_13LogbookEngine28log_qso_with_station_profile
FN:24,_RNvMNtNtCsgPbJLsevrBc_14qsoripper_core11application7logbookNtB2_13LogbookEngine3new
FN:148,_RNvMNtNtCsgPbJLsevrBc_14qsoripper_core11application7logbookNtB2_13LogbookEngine7get_qso
FN:40,_RNvMNtNtCsgPbJLsevrBc_14qsoripper_core11application7logbookNtB2_13LogbookEngine7log_qso
FN:167,_RNvMNtNtCsgPbJLsevrBc_14qsoripper_core11application7logbookNtB2_13LogbookEngine9list_qsos
FN:397,_RNvMs0_NtNtCsgPbJLsevrBc_14qsoripper_core11application7logbookNtB5_17AdifImportOutcome7skipped
FN:358,_RNvMs_NtNtCsgPbJLsevrBc_14qsoripper_core11application7logbookNtB4_17LogbookSyncStatus10from_parts
FN:675,_RNvNtNtCsgPbJLsevrBc_14qsoripper_core11application7logbook13now_timestamp
FN:639,_RNvNtNtCsgPbJLsevrBc_14qsoripper_core11application7logbook16timestamps_match
FN:664,_RNvNtNtCsgPbJLsevrBc_14qsoripper_core11application7logbook17non_empty_trimmed
FN:612,_RNvNtNtCsgPbJLsevrBc_14qsoripper_core11application7logbook18merge_optional_str
FN:621,_RNvNtNtCsgPbJLsevrBc_14qsoripper_core11application7logbook18merge_optional_u32
FN:627,_RNvNtNtCsgPbJLsevrBc_14qsoripper_core11application7logbook18merge_optional_u64
FN:452,_RNvNtNtCsgPbJLsevrBc_14qsoripper_core11application7logbook21invalid_import_reason
FN:525,_RNvNtNtCsgPbJLsevrBc_14qsoripper_core11application7logbook21merge_qso_for_refresh
FN:495,_RNvNtNtCsgPbJLsevrBc_14qsoripper_core11application7logbook21station_profile_label
FN:685,_RNvNtNtCsgPbJLsevrBc_14qsoripper_core11application7logbook22is_pending_sync_status
FN:657,_RNvNtNtCsgPbJLsevrBc_14qsoripper_core11application7logbook23optional_u64_compatible
FN:487,_RNvNtNtCsgPbJLsevrBc_14qsoripper_core11application7logbook23qso_has_station_context
FN:633,_RNvNtNtCsgPbJLsevrBc_14qsoripper_core11application7logbook24merge_optional_timestamp
FN:668,_RNvNtNtCsgPbJLsevrBc_14qsoripper_core11application7logbook24non_empty_trimmed_option
FN:501,_RNvNtNtCsgPbJLsevrBc_14qsoripper_core11application7logbook24qsos_match_for_duplicate
FN:647,_RNvNtNtCsgPbJLsevrBc_14qsoripper_core11application7logbook27optional_strings_compatible
FN:410,_RNvNtNtCsgPbJLsevrBc_14qsoripper_core11application7logbook28validate_qso_for_persistence
FN:405,_RNvNtNtCsgPbJLsevrBc_14qsoripper_core11application7logbook29normalize_qso_for_persistence
FN:643,_RNvNtNtCsgPbJLsevrBc_14qsoripper_core11application7logbook31strings_equal_ignore_ascii_case
FN:103,_RNCNCNvMNtNtCsgPbJLsevrBc_14qsoripper_core11application7logbookNtB6_13LogbookEngine10update_qso00Ba_
FN:108,_RNCNCNvMNtNtCsgPbJLsevrBc_14qsoripper_core11application7logbookNtB6_13LogbookEngine10update_qso0s_0Ba_
FN:311,_RNCNCNvMNtNtCsgPbJLsevrBc_14qsoripper_core11application7logbookNtB6_13LogbookEngine21find_duplicate_import00Ba_
FN:325,_RNCNCNvMNtNtCsgPbJLsevrBc_14qsoripper_core11application7logbookNtB6_13LogbookEngine21find_duplicate_import0s_0Ba_
FN:159,_RNCNCNvMNtNtCsgPbJLsevrBc_14qsoripper_core11application7logbookNtB6_13LogbookEngine7get_qso00Ba_
FN:126,_RNCNvMNtNtCsgPbJLsevrBc_14qsoripper_core11application7logbookNtB4_13LogbookEngine10delete_qso0B8_
FN:95,_RNCNvMNtNtCsgPbJLsevrBc_14qsoripper_core11application7logbookNtB4_13LogbookEngine10update_qso0B8_
FN:180,_RNCNvMNtNtCsgPbJLsevrBc_14qsoripper_core11application7logbookNtB4_13LogbookEngine15get_sync_status0B8_
FN:201,_RNCNvMNtNtCsgPbJLsevrBc_14qsoripper_core11application7logbookNtB4_13LogbookEngine16import_adif_qsos0B8_
FN:232,_RNCNvMNtNtCsgPbJLsevrBc_14qsoripper_core11application7logbookNtB4_13LogbookEngine20update_sync_metadata0B8_
FN:305,_RNCNvMNtNtCsgPbJLsevrBc_14qsoripper_core11application7logbookNtB4_13LogbookEngine21find_duplicate_import0B8_
FN:246,_RNCNvMNtNtCsgPbJLsevrBc_14qsoripper_core11application7logbookNtB4_13LogbookEngine22import_single_adif_qso0B8_
FN:69,_RNCNvMNtNtCsgPbJLsevrBc_14qsoripper_core11application7logbookNtB4_13LogbookEngine28log_qso_with_station_profile0B8_
FN:148,_RNCNvMNtNtCsgPbJLsevrBc_14qsoripper_core11application7logbookNtB4_13LogbookEngine7get_qso0B8_
FN:40,_RNCNvMNtNtCsgPbJLsevrBc_14qsoripper_core11application7logbookNtB4_13LogbookEngine7log_qso0B8_
FN:167,_RNCNvMNtNtCsgPbJLsevrBc_14qsoripper_core11application7logbookNtB4_13LogbookEngine9list_qsos0B8_
FN:103,_RNCNCNvMNtNtCs5kss5fdZ6xS_14qsoripper_core11application7logbookNtB6_13LogbookEngine10update_qso00Ba_
FN:108,_RNCNCNvMNtNtCs5kss5fdZ6xS_14qsoripper_core11application7logbookNtB6_13LogbookEngine10update_qso0s_0Ba_
FN:311,_RNCNCNvMNtNtCs5kss5fdZ6xS_14qsoripper_core11application7logbookNtB6_13LogbookEngine21find_duplicate_import00Ba_
FN:325,_RNCNCNvMNtNtCs5kss5fdZ6xS_14qsoripper_core11application7logbookNtB6_13LogbookEngine21find_duplicate_import0s_0Ba_
FN:159,_RNCNCNvMNtNtCs5kss5fdZ6xS_14qsoripper_core11application7logbookNtB6_13LogbookEngine7get_qso00Ba_
FN:615,_RNCNCNvNtNtCs5kss5fdZ6xS_14qsoripper_core11application7logbook18merge_optional_str00B9_
FN:671,_RNCNCNvNtNtCs5kss5fdZ6xS_14qsoripper_core11application7logbook24non_empty_trimmed_option00B9_
FN:126,_RNCNvMNtNtCs5kss5fdZ6xS_14qsoripper_core11application7logbookNtB4_13LogbookEngine10delete_qso0B8_
FN:95,_RNCNvMNtNtCs5kss5fdZ6xS_14qsoripper_core11application7logbookNtB4_13LogbookEngine10update_qso0B8_
FN:180,_RNCNvMNtNtCs5kss5fdZ6xS_14qsoripper_core11application7logbookNtB4_13LogbookEngine15get_sync_status0B8_
FN:201,_RNCNvMNtNtCs5kss5fdZ6xS_14qsoripper_core11application7logbookNtB4_13LogbookEngine16import_adif_qsos0B8_
FN:232,_RNCNvMNtNtCs5kss5fdZ6xS_14qsoripper_core11application7logbookNtB4_13LogbookEngine20update_sync_metadata0B8_
FN:305,_RNCNvMNtNtCs5kss5fdZ6xS_14qsoripper_core11application7logbookNtB4_13LogbookEngine21find_duplicate_import0B8_
FN:246,_RNCNvMNtNtCs5kss5fdZ6xS_14qsoripper_core11application7logbookNtB4_13LogbookEngine22import_single_adif_qso0B8_
FN:69,_RNCNvMNtNtCs5kss5fdZ6xS_14qsoripper_core11application7logbookNtB4_13LogbookEngine28log_qso_with_station_profile0B8_
FN:148,_RNCNvMNtNtCs5kss5fdZ6xS_14qsoripper_core11application7logbookNtB4_13LogbookEngine7get_qso0B8_
FN:40,_RNCNvMNtNtCs5kss5fdZ6xS_14qsoripper_core11application7logbookNtB4_13LogbookEngine7log_qso0B8_
FN:167,_RNCNvMNtNtCs5kss5fdZ6xS_14qsoripper_core11application7logbookNtB4_13LogbookEngine9list_qsos0B8_
FN:613,_RNCNvNtNtCs5kss5fdZ6xS_14qsoripper_core11application7logbook18merge_optional_str0B7_
FN:622,_RNCNvNtNtCs5kss5fdZ6xS_14qsoripper_core11application7logbook18merge_optional_u320B7_
FN:628,_RNCNvNtNtCs5kss5fdZ6xS_14qsoripper_core11application7logbook18merge_optional_u640B7_
FN:463,_RNCNvNtNtCs5kss5fdZ6xS_14qsoripper_core11application7logbook21invalid_import_reason0B7_
FN:497,_RNCNvNtNtCs5kss5fdZ6xS_14qsoripper_core11application7logbook21station_profile_label0B7_
FN:498,_RNCNvNtNtCs5kss5fdZ6xS_14qsoripper_core11application7logbook21station_profile_labels_0B7_
FN:669,_RNCNvNtNtCs5kss5fdZ6xS_14qsoripper_core11application7logbook24non_empty_trimmed_option0B7_
FN:126,_RNvMNtNtCs5kss5fdZ6xS_14qsoripper_core11application7logbookNtB2_13LogbookEngine10delete_qso
FN:95,_RNvMNtNtCs5kss5fdZ6xS_14qsoripper_core11application7logbookNtB2_13LogbookEngine10update_qso
FN:180,_RNvMNtNtCs5kss5fdZ6xS_14qsoripper_core11application7logbookNtB2_13LogbookEngine15get_sync_status
FN:196,_RNvMNtNtCs5kss5fdZ6xS_14qsoripper_core11application7logbookNtB2_13LogbookEngine16import_adif_qsos
FN:30,_RNvMNtNtCs5kss5fdZ6xS_14qsoripper_core11application7logbookNtB2_13LogbookEngine20storage_backend_name
FN:232,_RNvMNtNtCs5kss5fdZ6xS_14qsoripper_core11application7logbookNtB2_13LogbookEngine20update_sync_metadata
FN:302,_RNvMNtNtCs5kss5fdZ6xS_14qsoripper_core11application7logbookNtB2_13LogbookEngine21find_duplicate_import
FN:240,_RNvMNtNtCs5kss5fdZ6xS_14qsoripper_core11application7logbookNtB2_13LogbookEngine22import_single_adif_qso
FN:65,_RNvMNtNtCs5kss5fdZ6xS_14qsoripper_core11application7logbookNtB2_13LogbookEngine28log_qso_with_station_profile
FN:24,_RNvMNtNtCs5kss5fdZ6xS_14qsoripper_core11application7logbookNtB2_13LogbookEngine3new
FN:148,_RNvMNtNtCs5kss5fdZ6xS_14qsoripper_core11application7logbookNtB2_13LogbookEngine7get_qso
FN:40,_RNvMNtNtCs5kss5fdZ6xS_14qsoripper_core11application7logbookNtB2_13LogbookEngine7log_qso
FN:167,_RNvMNtNtCs5kss5fdZ6xS_14qsoripper_core11application7logbookNtB2_13LogbookEngine9list_qsos
FN:397,_RNvMs0_NtNtCs5kss5fdZ6xS_14qsoripper_core11application7logbookNtB5_17AdifImportOutcome7skipped
FN:358,_RNvMs_NtNtCs5kss5fdZ6xS_14qsoripper_core11application7logbookNtB4_17LogbookSyncStatus10from_parts
FN:675,_RNvNtNtCs5kss5fdZ6xS_14qsoripper_core11application7logbook13now_timestamp
FN:639,_RNvNtNtCs5kss5fdZ6xS_14qsoripper_core11application7logbook16timestamps_match
FN:664,_RNvNtNtCs5kss5fdZ6xS_14qsoripper_core11application7logbook17non_empty_trimmed
FN:612,_RNvNtNtCs5kss5fdZ6xS_14qsoripper_core11application7logbook18merge_optional_str
FN:621,_RNvNtNtCs5kss5fdZ6xS_14qsoripper_core11application7logbook18merge_optional_u32
FN:627,_RNvNtNtCs5kss5fdZ6xS_14qsoripper_core11application7logbook18merge_optional_u64
FN:452,_RNvNtNtCs5kss5fdZ6xS_14qsoripper_core11application7logbook21invalid_import_reason
FN:525,_RNvNtNtCs5kss5fdZ6xS_14qsoripper_core11application7logbook21merge_qso_for_refresh
FN:495,_RNvNtNtCs5kss5fdZ6xS_14qsoripper_core11application7logbook21station_profile_label
FN:685,_RNvNtNtCs5kss5fdZ6xS_14qsoripper_core11application7logbook22is_pending_sync_status
FN:657,_RNvNtNtCs5kss5fdZ6xS_14qsoripper_core11application7logbook23optional_u64_compatible
FN:487,_RNvNtNtCs5kss5fdZ6xS_14qsoripper_core11application7logbook23qso_has_station_context
FN:633,_RNvNtNtCs5kss5fdZ6xS_14qsoripper_core11application7logbook24merge_optional_timestamp
FN:668,_RNvNtNtCs5kss5fdZ6xS_14qsoripper_core11application7logbook24non_empty_trimmed_option
FN:501,_RNvNtNtCs5kss5fdZ6xS_14qsoripper_core11application7logbook24qsos_match_for_duplicate
FN:647,_RNvNtNtCs5kss5fdZ6xS_14qsoripper_core11application7logbook27optional_strings_compatible
FN:410,_RNvNtNtCs5kss5fdZ6xS_14qsoripper_core11application7logbook28validate_qso_for_persistence
FN:405,_RNvNtNtCs5kss5fdZ6xS_14qsoripper_core11application7logbook29normalize_qso_for_persistence
FN:643,_RNvNtNtCs5kss5fdZ6xS_14qsoripper_core11application7logbook31strings_equal_ignore_ascii_case
FN:103,_RNCNCNvMNtNtCsgPbJLsevrBc_14qsoripper_core11application7logbookNtB6_13LogbookEngine10update_qso00CsujLUsjorcV_16qsoripper_server
FN:108,_RNCNCNvMNtNtCsgPbJLsevrBc_14qsoripper_core11application7logbookNtB6_13LogbookEngine10update_qso0s_0CsujLUsjorcV_16qsoripper_server
FN:311,_RNCNCNvMNtNtCsgPbJLsevrBc_14qsoripper_core11application7logbookNtB6_13LogbookEngine21find_duplicate_import00CsujLUsjorcV_16qsoripper_server
FN:325,_RNCNCNvMNtNtCsgPbJLsevrBc_14qsoripper_core11application7logbookNtB6_13LogbookEngine21find_duplicate_import0s_0CsujLUsjorcV_16qsoripper_server
FN:159,_RNCNCNvMNtNtCsgPbJLsevrBc_14qsoripper_core11application7logbookNtB6_13LogbookEngine7get_qso00CsujLUsjorcV_16qsoripper_server
FN:126,_RNCNvMNtNtCsgPbJLsevrBc_14qsoripper_core11application7logbookNtB4_13LogbookEngine10delete_qso0CsujLUsjorcV_16qsoripper_server
FN:95,_RNCNvMNtNtCsgPbJLsevrBc_14qsoripper_core11application7logbookNtB4_13LogbookEngine10update_qso0CsujLUsjorcV_16qsoripper_server
FN:180,_RNCNvMNtNtCsgPbJLsevrBc_14qsoripper_core11application7logbookNtB4_13LogbookEngine15get_sync_status0CsujLUsjorcV_16qsoripper_server
FN:201,_RNCNvMNtNtCsgPbJLsevrBc_14qsoripper_core11application7logbookNtB4_13LogbookEngine16import_adif_qsos0CsujLUsjorcV_16qsoripper_server
FN:305,_RNCNvMNtNtCsgPbJLsevrBc_14qsoripper_core11application7logbookNtB4_13LogbookEngine21find_duplicate_import0CsujLUsjorcV_16qsoripper_server
FN:246,_RNCNvMNtNtCsgPbJLsevrBc_14qsoripper_core11application7logbookNtB4_13LogbookEngine22import_single_adif_qso0CsujLUsjorcV_16qsoripper_server
FN:69,_RNCNvMNtNtCsgPbJLsevrBc_14qsoripper_core11application7logbookNtB4_13LogbookEngine28log_qso_with_station_profile0CsujLUsjorcV_16qsoripper_server
FN:148,_RNCNvMNtNtCsgPbJLsevrBc_14qsoripper_core11application7logbookNtB4_13LogbookEngine7get_qso0CsujLUsjorcV_16qsoripper_server
FN:40,_RNCNvMNtNtCsgPbJLsevrBc_14qsoripper_core11application7logbookNtB4_13LogbookEngine7log_qso0CsujLUsjorcV_16qsoripper_server
FN:167,_RNCNvMNtNtCsgPbJLsevrBc_14qsoripper_core11application7logbookNtB4_13LogbookEngine9list_qsos0CsujLUsjorcV_16qsoripper_server
FN:159,_RNCNCNvMNtNtCsgPbJLsevrBc_14qsoripper_core11application7logbookNtB6_13LogbookEngine7get_qso00CsaQT5tdxFSLB_24qsoripper_storage_memory
FN:148,_RNCNvMNtNtCsgPbJLsevrBc_14qsoripper_core11application7logbookNtB4_13LogbookEngine7get_qso0CsaQT5tdxFSLB_24qsoripper_storage_memory
FN:40,_RNCNvMNtNtCsgPbJLsevrBc_14qsoripper_core11application7logbookNtB4_13LogbookEngine7log_qso0CsaQT5tdxFSLB_24qsoripper_storage_memory
FN:167,_RNCNvMNtNtCsgPbJLsevrBc_14qsoripper_core11application7logbookNtB4_13LogbookEngine9list_qsos0CsaQT5tdxFSLB_24qsoripper_storage_memory
FN:159,_RNCNCNvMNtNtCsgPbJLsevrBc_14qsoripper_core11application7logbookNtB6_13LogbookEngine7get_qso00CslOMEjNOpVly_24qsoripper_storage_sqlite
FN:148,_RNCNvMNtNtCsgPbJLsevrBc_14qsoripper_core11application7logbookNtB4_13LogbookEngine7get_qso0CslOMEjNOpVly_24qsoripper_storage_sqlite
FN:40,_RNCNvMNtNtCsgPbJLsevrBc_14qsoripper_core11application7logbookNtB4_13LogbookEngine7log_qso0CslOMEjNOpVly_24qsoripper_storage_sqlite
FN:167,_RNCNvMNtNtCsgPbJLsevrBc_14qsoripper_core11application7logbookNtB4_13LogbookEngine9list_qsos0CslOMEjNOpVly_24qsoripper_storage_sqlite
FNDA:0,_RNCNCNvNtNtCsgPbJLsevrBc_14qsoripper_core11application7logbook18merge_optional_str00B9_
FNDA:12,_RNCNCNvNtNtCsgPbJLsevrBc_14qsoripper_core11application7logbook24non_empty_trimmed_option00B9_
FNDA:0,_RNCNvNtNtCsgPbJLsevrBc_14qsoripper_core11application7logbook18merge_optional_str0B7_
FNDA:0,_RNCNvNtNtCsgPbJLsevrBc_14qsoripper_core11application7logbook18merge_optional_u320B7_
FNDA:0,_RNCNvNtNtCsgPbJLsevrBc_14qsoripper_core11application7logbook18merge_optional_u640B7_
FNDA:0,_RNCNvNtNtCsgPbJLsevrBc_14qsoripper_core11application7logbook21invalid_import_reason0B7_
FNDA:0,_RNCNvNtNtCsgPbJLsevrBc_14qsoripper_core11application7logbook21station_profile_label0B7_
FNDA:0,_RNCNvNtNtCsgPbJLsevrBc_14qsoripper_core11application7logbook21station_profile_labels_0B7_
FNDA:12,_RNCNvNtNtCsgPbJLsevrBc_14qsoripper_core11application7logbook24non_empty_trimmed_option0B7_
FNDA:3,_RNvMNtNtCsgPbJLsevrBc_14qsoripper_core11application7logbookNtB2_13LogbookEngine10delete_qso
FNDA:2,_RNvMNtNtCsgPbJLsevrBc_14qsoripper_core11application7logbookNtB2_13LogbookEngine10update_qso
FNDA:4,_RNvMNtNtCsgPbJLsevrBc_14qsoripper_core11application7logbookNtB2_13LogbookEngine15get_sync_status
FNDA:10,_RNvMNtNtCsgPbJLsevrBc_14qsoripper_core11application7logbookNtB2_13LogbookEngine16import_adif_qsos
FNDA:53,_RNvMNtNtCsgPbJLsevrBc_14qsoripper_core11application7logbookNtB2_13LogbookEngine20storage_backend_name
FNDA:0,_RNvMNtNtCsgPbJLsevrBc_14qsoripper_core11application7logbookNtB2_13LogbookEngine20update_sync_metadata
FNDA:11,_RNvMNtNtCsgPbJLsevrBc_14qsoripper_core11application7logbookNtB2_13LogbookEngine21find_duplicate_import
FNDA:12,_RNvMNtNtCsgPbJLsevrBc_14qsoripper_core11application7logbookNtB2_13LogbookEngine22import_single_adif_qso
FNDA:10,_RNvMNtNtCsgPbJLsevrBc_14qsoripper_core11application7logbookNtB2_13LogbookEngine28log_qso_with_station_profile
FNDA:57,_RNvMNtNtCsgPbJLsevrBc_14qsoripper_core11application7logbookNtB2_13LogbookEngine3new
FNDA:9,_RNvMNtNtCsgPbJLsevrBc_14qsoripper_core11application7logbookNtB2_13LogbookEngine7get_qso
FNDA:13,_RNvMNtNtCsgPbJLsevrBc_14qsoripper_core11application7logbookNtB2_13LogbookEngine7log_qso
FNDA:10,_RNvMNtNtCsgPbJLsevrBc_14qsoripper_core11application7logbookNtB2_13LogbookEngine9list_qsos
FNDA:1,_RNvMs0_NtNtCsgPbJLsevrBc_14qsoripper_core11application7logbookNtB5_17AdifImportOutcome7skipped
FNDA:4,_RNvMs_NtNtCsgPbJLsevrBc_14qsoripper_core11application7logbookNtB4_17LogbookSyncStatus10from_parts
FNDA:24,_RNvNtNtCsgPbJLsevrBc_14qsoripper_core11application7logbook13now_timestamp
FNDA:5,_RNvNtNtCsgPbJLsevrBc_14qsoripper_core11application7logbook16timestamps_match
FNDA:11,_RNvNtNtCsgPbJLsevrBc_14qsoripper_core11application7logbook17non_empty_trimmed
FNDA:63,_RNvNtNtCsgPbJLsevrBc_14qsoripper_core11application7logbook18merge_optional_str
FNDA:9,_RNvNtNtCsgPbJLsevrBc_14qsoripper_core11application7logbook18merge_optional_u32
FNDA:3,_RNvNtNtCsgPbJLsevrBc_14qsoripper_core11application7logbook18merge_optional_u64
FNDA:12,_RNvNtNtCsgPbJLsevrBc_14qsoripper_core11application7logbook21invalid_import_reason
FNDA:3,_RNvNtNtCsgPbJLsevrBc_14qsoripper_core11application7logbook21merge_qso_for_refresh
FNDA:1,_RNvNtNtCsgPbJLsevrBc_14qsoripper_core11application7logbook21station_profile_label
FNDA:3,_RNvNtNtCsgPbJLsevrBc_14qsoripper_core11application7logbook22is_pending_sync_status
FNDA:5,_RNvNtNtCsgPbJLsevrBc_14qsoripper_core11application7logbook23optional_u64_compatible
FNDA:12,_RNvNtNtCsgPbJLsevrBc_14qsoripper_core11application7logbook23qso_has_station_context
FNDA:3,_RNvNtNtCsgPbJLsevrBc_14qsoripper_core11application7logbook24merge_optional_timestamp
FNDA:22,_RNvNtNtCsgPbJLsevrBc_14qsoripper_core11application7logbook24non_empty_trimmed_option
FNDA:5,_RNvNtNtCsgPbJLsevrBc_14qsoripper_core11application7logbook24qsos_match_for_duplicate
FNDA:5,_RNvNtNtCsgPbJLsevrBc_14qsoripper_core11application7logbook27optional_strings_compatible
FNDA:25,_RNvNtNtCsgPbJLsevrBc_14qsoripper_core11application7logbook28validate_qso_for_persistence
FNDA:37,_RNvNtNtCsgPbJLsevrBc_14qsoripper_core11application7logbook29normalize_qso_for_persistence
FNDA:10,_RNvNtNtCsgPbJLsevrBc_14qsoripper_core11application7logbook31strings_equal_ignore_ascii_case
FNDA:0,_RNCNCNvMNtNtCsgPbJLsevrBc_14qsoripper_core11application7logbookNtB6_13LogbookEngine10update_qso00Ba_
FNDA:0,_RNCNCNvMNtNtCsgPbJLsevrBc_14qsoripper_core11application7logbookNtB6_13LogbookEngine10update_qso0s_0Ba_
FNDA:0,_RNCNCNvMNtNtCsgPbJLsevrBc_14qsoripper_core11application7logbookNtB6_13LogbookEngine21find_duplicate_import00Ba_
FNDA:0,_RNCNCNvMNtNtCsgPbJLsevrBc_14qsoripper_core11application7logbookNtB6_13LogbookEngine21find_duplicate_import0s_0Ba_
FNDA:0,_RNCNCNvMNtNtCsgPbJLsevrBc_14qsoripper_core11application7logbookNtB6_13LogbookEngine7get_qso00Ba_
FNDA:0,_RNCNvMNtNtCsgPbJLsevrBc_14qsoripper_core11application7logbookNtB4_13LogbookEngine10delete_qso0B8_
FNDA:0,_RNCNvMNtNtCsgPbJLsevrBc_14qsoripper_core11application7logbookNtB4_13LogbookEngine10update_qso0B8_
FNDA:0,_RNCNvMNtNtCsgPbJLsevrBc_14qsoripper_core11application7logbookNtB4_13LogbookEngine15get_sync_status0B8_
FNDA:0,_RNCNvMNtNtCsgPbJLsevrBc_14qsoripper_core11application7logbookNtB4_13LogbookEngine16import_adif_qsos0B8_
FNDA:0,_RNCNvMNtNtCsgPbJLsevrBc_14qsoripper_core11application7logbookNtB4_13LogbookEngine20update_sync_metadata0B8_
FNDA:0,_RNCNvMNtNtCsgPbJLsevrBc_14qsoripper_core11application7logbookNtB4_13LogbookEngine21find_duplicate_import0B8_
FNDA:0,_RNCNvMNtNtCsgPbJLsevrBc_14qsoripper_core11application7logbookNtB4_13LogbookEngine22import_single_adif_qso0B8_
FNDA:0,_RNCNvMNtNtCsgPbJLsevrBc_14qsoripper_core11application7logbookNtB4_13LogbookEngine28log_qso_with_station_profile0B8_
FNDA:0,_RNCNvMNtNtCsgPbJLsevrBc_14qsoripper_core11application7logbookNtB4_13LogbookEngine7get_qso0B8_
FNDA:0,_RNCNvMNtNtCsgPbJLsevrBc_14qsoripper_core11application7logbookNtB4_13LogbookEngine7log_qso0B8_
FNDA:0,_RNCNvMNtNtCsgPbJLsevrBc_14qsoripper_core11application7logbookNtB4_13LogbookEngine9list_qsos0B8_
FNDA:0,_RNCNCNvMNtNtCs5kss5fdZ6xS_14qsoripper_core11application7logbookNtB6_13LogbookEngine10update_qso00Ba_
FNDA:0,_RNCNCNvMNtNtCs5kss5fdZ6xS_14qsoripper_core11application7logbookNtB6_13LogbookEngine10update_qso0s_0Ba_
FNDA:0,_RNCNCNvMNtNtCs5kss5fdZ6xS_14qsoripper_core11application7logbookNtB6_13LogbookEngine21find_duplicate_import00Ba_
FNDA:0,_RNCNCNvMNtNtCs5kss5fdZ6xS_14qsoripper_core11application7logbookNtB6_13LogbookEngine21find_duplicate_import0s_0Ba_
FNDA:0,_RNCNCNvMNtNtCs5kss5fdZ6xS_14qsoripper_core11application7logbookNtB6_13LogbookEngine7get_qso00Ba_
FNDA:0,_RNCNCNvNtNtCs5kss5fdZ6xS_14qsoripper_core11application7logbook18merge_optional_str00B9_
FNDA:0,_RNCNCNvNtNtCs5kss5fdZ6xS_14qsoripper_core11application7logbook24non_empty_trimmed_option00B9_
FNDA:0,_RNCNvMNtNtCs5kss5fdZ6xS_14qsoripper_core11application7logbookNtB4_13LogbookEngine10delete_qso0B8_
FNDA:0,_RNCNvMNtNtCs5kss5fdZ6xS_14qsoripper_core11application7logbookNtB4_13LogbookEngine10update_qso0B8_
FNDA:0,_RNCNvMNtNtCs5kss5fdZ6xS_14qsoripper_core11application7logbookNtB4_13LogbookEngine15get_sync_status0B8_
FNDA:0,_RNCNvMNtNtCs5kss5fdZ6xS_14qsoripper_core11application7logbookNtB4_13LogbookEngine16import_adif_qsos0B8_
FNDA:0,_RNCNvMNtNtCs5kss5fdZ6xS_14qsoripper_core11application7logbookNtB4_13LogbookEngine20update_sync_metadata0B8_
FNDA:0,_RNCNvMNtNtCs5kss5fdZ6xS_14qsoripper_core11application7logbookNtB4_13LogbookEngine21find_duplicate_import0B8_
FNDA:0,_RNCNvMNtNtCs5kss5fdZ6xS_14qsoripper_core11application7logbookNtB4_13LogbookEngine22import_single_adif_qso0B8_
FNDA:0,_RNCNvMNtNtCs5kss5fdZ6xS_14qsoripper_core11application7logbookNtB4_13LogbookEngine28log_qso_with_station_profile0B8_
FNDA:0,_RNCNvMNtNtCs5kss5fdZ6xS_14qsoripper_core11application7logbookNtB4_13LogbookEngine7get_qso0B8_
FNDA:0,_RNCNvMNtNtCs5kss5fdZ6xS_14qsoripper_core11application7logbookNtB4_13LogbookEngine7log_qso0B8_
FNDA:0,_RNCNvMNtNtCs5kss5fdZ6xS_14qsoripper_core11application7logbookNtB4_13LogbookEngine9list_qsos0B8_
FNDA:0,_RNCNvNtNtCs5kss5fdZ6xS_14qsoripper_core11application7logbook18merge_optional_str0B7_
FNDA:0,_RNCNvNtNtCs5kss5fdZ6xS_14qsoripper_core11application7logbook18merge_optional_u320B7_
FNDA:0,_RNCNvNtNtCs5kss5fdZ6xS_14qsoripper_core11application7logbook18merge_optional_u640B7_
FNDA:0,_RNCNvNtNtCs5kss5fdZ6xS_14qsoripper_core11application7logbook21invalid_import_reason0B7_
FNDA:0,_RNCNvNtNtCs5kss5fdZ6xS_14qsoripper_core11application7logbook21station_profile_label0B7_
FNDA:0,_RNCNvNtNtCs5kss5fdZ6xS_14qsoripper_core11application7logbook21station_profile_labels_0B7_
FNDA:0,_RNCNvNtNtCs5kss5fdZ6xS_14qsoripper_core11application7logbook24non_empty_trimmed_option0B7_
FNDA:0,_RNvMNtNtCs5kss5fdZ6xS_14qsoripper_core11application7logbookNtB2_13LogbookEngine10delete_qso
FNDA:0,_RNvMNtNtCs5kss5fdZ6xS_14qsoripper_core11application7logbookNtB2_13LogbookEngine10update_qso
FNDA:0,_RNvMNtNtCs5kss5fdZ6xS_14qsoripper_core11application7logbookNtB2_13LogbookEngine15get_sync_status
FNDA:0,_RNvMNtNtCs5kss5fdZ6xS_14qsoripper_core11application7logbookNtB2_13LogbookEngine16import_adif_qsos
FNDA:0,_RNvMNtNtCs5kss5fdZ6xS_14qsoripper_core11application7logbookNtB2_13LogbookEngine20storage_backend_name
FNDA:0,_RNvMNtNtCs5kss5fdZ6xS_14qsoripper_core11application7logbookNtB2_13LogbookEngine20update_sync_metadata
FNDA:0,_RNvMNtNtCs5kss5fdZ6xS_14qsoripper_core11application7logbookNtB2_13LogbookEngine21find_duplicate_import
FNDA:0,_RNvMNtNtCs5kss5fdZ6xS_14qsoripper_core11application7logbookNtB2_13LogbookEngine22import_single_adif_qso
FNDA:0,_RNvMNtNtCs5kss5fdZ6xS_14qsoripper_core11application7logbookNtB2_13LogbookEngine28log_qso_with_station_profile
FNDA:0,_RNvMNtNtCs5kss5fdZ6xS_14qsoripper_core11application7logbookNtB2_13LogbookEngine3new
FNDA:0,_RNvMNtNtCs5kss5fdZ6xS_14qsoripper_core11application7logbookNtB2_13LogbookEngine7get_qso
FNDA:0,_RNvMNtNtCs5kss5fdZ6xS_14qsoripper_core11application7logbookNtB2_13LogbookEngine7log_qso
FNDA:0,_RNvMNtNtCs5kss5fdZ6xS_14qsoripper_core11application7logbookNtB2_13LogbookEngine9list_qsos
FNDA:0,_RNvMs0_NtNtCs5kss5fdZ6xS_14qsoripper_core11application7logbookNtB5_17AdifImportOutcome7skipped
FNDA:0,_RNvMs_NtNtCs5kss5fdZ6xS_14qsoripper_core11application7logbookNtB4_17LogbookSyncStatus10from_parts
FNDA:0,_RNvNtNtCs5kss5fdZ6xS_14qsoripper_core11application7logbook13now_timestamp
FNDA:0,_RNvNtNtCs5kss5fdZ6xS_14qsoripper_core11application7logbook16timestamps_match
FNDA:0,_RNvNtNtCs5kss5fdZ6xS_14qsoripper_core11application7logbook17non_empty_trimmed
FNDA:0,_RNvNtNtCs5kss5fdZ6xS_14qsoripper_core11application7logbook18merge_optional_str
FNDA:0,_RNvNtNtCs5kss5fdZ6xS_14qsoripper_core11application7logbook18merge_optional_u32
FNDA:0,_RNvNtNtCs5kss5fdZ6xS_14qsoripper_core11application7logbook18merge_optional_u64
FNDA:0,_RNvNtNtCs5kss5fdZ6xS_14qsoripper_core11application7logbook21invalid_import_reason
FNDA:0,_RNvNtNtCs5kss5fdZ6xS_14qsoripper_core11application7logbook21merge_qso_for_refresh
FNDA:0,_RNvNtNtCs5kss5fdZ6xS_14qsoripper_core11application7logbook21station_profile_label
FNDA:0,_RNvNtNtCs5kss5fdZ6xS_14qsoripper_core11application7logbook22is_pending_sync_status
FNDA:0,_RNvNtNtCs5kss5fdZ6xS_14qsoripper_core11application7logbook23optional_u64_compatible
FNDA:0,_RNvNtNtCs5kss5fdZ6xS_14qsoripper_core11application7logbook23qso_has_station_context
FNDA:0,_RNvNtNtCs5kss5fdZ6xS_14qsoripper_core11application7logbook24merge_optional_timestamp
FNDA:0,_RNvNtNtCs5kss5fdZ6xS_14qsoripper_core11application7logbook24non_empty_trimmed_option
FNDA:0,_RNvNtNtCs5kss5fdZ6xS_14qsoripper_core11application7logbook24qsos_match_for_duplicate
FNDA:0,_RNvNtNtCs5kss5fdZ6xS_14qsoripper_core11application7logbook27optional_strings_compatible
FNDA:0,_RNvNtNtCs5kss5fdZ6xS_14qsoripper_core11application7logbook28validate_qso_for_persistence
FNDA:0,_RNvNtNtCs5kss5fdZ6xS_14qsoripper_core11application7logbook29normalize_qso_for_persistence
FNDA:0,_RNvNtNtCs5kss5fdZ6xS_14qsoripper_core11application7logbook31strings_equal_ignore_ascii_case
FNDA:0,_RNCNCNvMNtNtCsgPbJLsevrBc_14qsoripper_core11application7logbookNtB6_13LogbookEngine10update_qso00CsujLUsjorcV_16qsoripper_server
FNDA:0,_RNCNCNvMNtNtCsgPbJLsevrBc_14qsoripper_core11application7logbookNtB6_13LogbookEngine10update_qso0s_0CsujLUsjorcV_16qsoripper_server
FNDA:0,_RNCNCNvMNtNtCsgPbJLsevrBc_14qsoripper_core11application7logbookNtB6_13LogbookEngine21find_duplicate_import00CsujLUsjorcV_16qsoripper_server
FNDA:5,_RNCNCNvMNtNtCsgPbJLsevrBc_14qsoripper_core11application7logbookNtB6_13LogbookEngine21find_duplicate_import0s_0CsujLUsjorcV_16qsoripper_server
FNDA:2,_RNCNCNvMNtNtCsgPbJLsevrBc_14qsoripper_core11application7logbookNtB6_13LogbookEngine7get_qso00CsujLUsjorcV_16qsoripper_server
FNDA:3,_RNCNvMNtNtCsgPbJLsevrBc_14qsoripper_core11application7logbookNtB4_13LogbookEngine10delete_qso0CsujLUsjorcV_16qsoripper_server
FNDA:2,_RNCNvMNtNtCsgPbJLsevrBc_14qsoripper_core11application7logbookNtB4_13LogbookEngine10update_qso0CsujLUsjorcV_16qsoripper_server
FNDA:4,_RNCNvMNtNtCsgPbJLsevrBc_14qsoripper_core11application7logbookNtB4_13LogbookEngine15get_sync_status0CsujLUsjorcV_16qsoripper_server
FNDA:10,_RNCNvMNtNtCsgPbJLsevrBc_14qsoripper_core11application7logbookNtB4_13LogbookEngine16import_adif_qsos0CsujLUsjorcV_16qsoripper_server
FNDA:11,_RNCNvMNtNtCsgPbJLsevrBc_14qsoripper_core11application7logbookNtB4_13LogbookEngine21find_duplicate_import0CsujLUsjorcV_16qsoripper_server
FNDA:12,_RNCNvMNtNtCsgPbJLsevrBc_14qsoripper_core11application7logbookNtB4_13LogbookEngine22import_single_adif_qso0CsujLUsjorcV_16qsoripper_server
FNDA:10,_RNCNvMNtNtCsgPbJLsevrBc_14qsoripper_core11application7logbookNtB4_13LogbookEngine28log_qso_with_station_profile0CsujLUsjorcV_16qsoripper_server
FNDA:7,_RNCNvMNtNtCsgPbJLsevrBc_14qsoripper_core11application7logbookNtB4_13LogbookEngine7get_qso0CsujLUsjorcV_16qsoripper_server
FNDA:7,_RNCNvMNtNtCsgPbJLsevrBc_14qsoripper_core11application7logbookNtB4_13LogbookEngine7log_qso0CsujLUsjorcV_16qsoripper_server
FNDA:7,_RNCNvMNtNtCsgPbJLsevrBc_14qsoripper_core11application7logbookNtB4_13LogbookEngine9list_qsos0CsujLUsjorcV_16qsoripper_server
FNDA:0,_RNCNCNvMNtNtCsgPbJLsevrBc_14qsoripper_core11application7logbookNtB6_13LogbookEngine7get_qso00CsaQT5tdxFSLB_24qsoripper_storage_memory
FNDA:1,_RNCNvMNtNtCsgPbJLsevrBc_14qsoripper_core11application7logbookNtB4_13LogbookEngine7get_qso0CsaQT5tdxFSLB_24qsoripper_storage_memory
FNDA:3,_RNCNvMNtNtCsgPbJLsevrBc_14qsoripper_core11application7logbookNtB4_13LogbookEngine7log_qso0CsaQT5tdxFSLB_24qsoripper_storage_memory
FNDA:2,_RNCNvMNtNtCsgPbJLsevrBc_14qsoripper_core11application7logbookNtB4_13LogbookEngine9list_qsos0CsaQT5tdxFSLB_24qsoripper_storage_memory
FNDA:0,_RNCNCNvMNtNtCsgPbJLsevrBc_14qsoripper_core11application7logbookNtB6_13LogbookEngine7get_qso00CslOMEjNOpVly_24qsoripper_storage_sqlite
FNDA:1,_RNCNvMNtNtCsgPbJLsevrBc_14qsoripper_core11application7logbookNtB4_13LogbookEngine7get_qso0CslOMEjNOpVly_24qsoripper_storage_sqlite
FNDA:3,_RNCNvMNtNtCsgPbJLsevrBc_14qsoripper_core11application7logbookNtB4_13LogbookEngine7log_qso0CslOMEjNOpVly_24qsoripper_storage_sqlite
FNDA:1,_RNCNvMNtNtCsgPbJLsevrBc_14qsoripper_core11application7logbookNtB4_13LogbookEngine9list_qsos0CslOMEjNOpVly_24qsoripper_storage_sqlite
FNF:59
FNH:47
DA:24,57
DA:25,57
DA:26,57
DA:30,53
DA:31,53
DA:32,53
DA:40,13
DA:41,13
DA:42,13
DA:43,13
DA:45,13
DA:46,0
DA:47,13
DA:49,13
DA:50,13
DA:51,13
DA:52,13
DA:53,13
DA:55,13
DA:56,13
DA:57,13
DA:65,10
DA:66,10
DA:67,10
DA:68,10
DA:69,10
DA:70,10
DA:71,10
DA:72,10
DA:74,6
DA:75,6
DA:76,6
DA:78,6
DA:79,6
DA:80,6
DA:81,6
DA:82,6
DA:84,6
DA:85,6
DA:86,10
DA:95,2
DA:96,2
DA:97,0
DA:98,0
DA:99,0
DA:100,2
DA:102,2
DA:103,2
DA:104,2
DA:105,2
DA:106,2
DA:108,2
DA:109,2
DA:111,2
DA:112,2
DA:113,2
DA:115,0
DA:117,2
DA:126,3
DA:127,3
DA:128,0
DA:129,0
DA:130,0
DA:131,3
DA:133,3
DA:134,3
DA:135,3
DA:137,0
DA:139,3
DA:148,9
DA:149,9
DA:150,0
DA:151,0
DA:152,0
DA:153,9
DA:155,9
DA:156,9
DA:157,9
DA:158,9
DA:159,9
DA:160,9
DA:167,10
DA:168,10
DA:169,10
DA:170,10
DA:171,10
DA:172,10
DA:173,10
DA:180,4
DA:181,4
DA:182,4
DA:184,4
DA:185,4
DA:196,10
DA:197,10
DA:198,10
DA:199,10
DA:200,10
DA:201,10
DA:202,10
DA:204,12
DA:205,12
DA:206,12
DA:207,12
DA:209,12
DA:210,6
DA:211,6
DA:212,6
DA:213,3
DA:214,3
DA:215,3
DA:216,3
DA:217,3
DA:218,3
DA:221,12
DA:224,10
DA:225,10
DA:232,0
DA:233,0
DA:234,0
DA:235,0
DA:236,0
DA:237,0
DA:238,0
DA:240,12
DA:241,12
DA:242,12
DA:243,12
DA:244,12
DA:245,12
DA:246,12
DA:247,12
DA:248,12
DA:250,12
DA:251,11
DA:252,11
DA:253,1
DA:254,1
DA:255,1
DA:256,1
DA:257,1
DA:258,1
DA:259,0
DA:260,0
DA:261,0
DA:264,12
DA:266,12
DA:267,1
DA:268,1
DA:269,1
DA:270,11
DA:272,11
DA:273,5
DA:274,3
DA:275,3
DA:276,3
DA:277,3
DA:280,3
DA:281,3
DA:282,3
DA:283,3
DA:284,2
DA:286,2
DA:287,2
DA:289,2
DA:290,2
DA:291,2
DA:292,2
DA:293,6
DA:295,6
DA:296,6
DA:297,6
DA:298,6
DA:299,6
DA:300,12
DA:302,11
DA:303,11
DA:304,11
DA:305,11
DA:306,11
DA:307,0
DA:310,11
DA:311,11
DA:312,11
DA:313,11
DA:314,11
DA:315,11
DA:316,11
DA:317,11
DA:318,11
DA:319,11
DA:320,11
DA:321,11
DA:323,11
DA:324,11
DA:325,11
DA:326,11
DA:358,4
DA:359,4
DA:360,4
DA:361,4
DA:362,4
DA:363,4
DA:364,4
DA:365,4
DA:366,4
DA:397,1
DA:398,1
DA:399,1
DA:400,1
DA:401,1
DA:402,1
DA:405,37
DA:406,37
DA:407,37
DA:408,37
DA:410,25
DA:411,25
DA:412,1
DA:413,1
DA:414,1
DA:415,24
DA:417,24
DA:418,0
DA:419,0
DA:420,0
DA:421,24
DA:423,24
DA:424,1
DA:425,1
DA:426,1
DA:427,23
DA:429,23
DA:431,1
DA:433,22
DA:435,0
DA:439,22
DA:441,1
DA:443,21
DA:445,0
DA:449,21
DA:450,25
DA:452,12
DA:453,12
DA:454,0
DA:455,12
DA:456,0
DA:457,12
DA:458,0
DA:459,0
DA:460,0
DA:461,0
DA:462,0
DA:463,0
DA:466,0
DA:469,12
DA:470,1
DA:471,1
DA:472,0
DA:474,11
DA:475,0
DA:476,0
DA:477,0
DA:479,11
DA:480,0
DA:482,0
DA:485,12
DA:487,12
DA:488,12
DA:489,1
DA:490,1
DA:491,1
DA:492,1
DA:493,12
DA:495,1
DA:496,1
DA:497,1
DA:498,1
DA:499,1
DA:501,5
DA:502,5
DA:503,5
DA:504,5
DA:505,5
DA:506,5
DA:507,5
DA:508,5
DA:509,5
DA:511,5
DA:512,5
DA:513,5
DA:515,5
DA:516,5
DA:517,5
DA:525,3
DA:527,3
DA:528,3
DA:529,3
DA:530,3
DA:531,3
DA:533,3
DA:534,3
DA:535,3
DA:538,3
DA:539,3
DA:540,3
DA:543,3
DA:544,3
DA:545,3
DA:546,3
DA:547,1
DA:548,2
DA:549,3
DA:552,3
DA:553,3
DA:554,3
DA:556,3
DA:557,3
DA:558,3
DA:560,3
DA:561,3
DA:562,3
DA:563,3
DA:565,3
DA:566,3
DA:567,3
DA:568,3
DA:569,3
DA:570,3
DA:571,3
DA:572,3
DA:573,3
DA:575,3
DA:576,3
DA:577,3
DA:581,3
DA:582,3
DA:583,3
DA:584,3
DA:585,3
DA:587,3
DA:588,3
DA:589,3
DA:590,3
DA:594,3
DA:595,3
DA:596,3
DA:599,3
DA:600,3
DA:603,3
DA:604,0
DA:605,0
DA:607,3
DA:609,3
DA:610,3
DA:612,63
DA:613,63
DA:614,0
DA:615,0
DA:616,0
DA:617,0
DA:618,63
DA:619,63
DA:621,9
DA:622,9
DA:623,0
DA:624,9
DA:625,9
DA:627,3
DA:628,3
DA:629,0
DA:630,3
DA:631,3
DA:633,3
DA:634,3
DA:635,0
DA:636,3
DA:637,3
DA:639,5
DA:640,5
DA:641,5
DA:643,10
DA:644,10
DA:645,10
DA:647,5
DA:649,5
DA:650,5
DA:652,0
DA:653,5
DA:655,5
DA:657,5
DA:658,5
DA:659,0
DA:660,5
DA:662,5
DA:664,11
DA:665,11
DA:666,11
DA:668,22
DA:669,22
DA:670,12
DA:671,12
DA:672,12
DA:673,22
DA:675,24
DA:676,24
DA:677,24
DA:678,24
DA:679,24
DA:680,24
DA:681,24
DA:685,3
DA:686,3
DA:687,3
BRF:0
BRH:0
LF:440
LH:374
end_of_record
SF:C:\Users\randy\Git\qsoripper-adif-refresh\src\rust\qsoripper-core\src\domain\band.rs
FN:70,_RNvNtNtCsgPbJLsevrBc_14qsoripper_core6domain4band12band_to_adif
FN:63,_RNvNtNtCsgPbJLsevrBc_14qsoripper_core6domain4band14band_from_adif
FN:82,_RNvNtNtCsgPbJLsevrBc_14qsoripper_core6domain4band23band_from_frequency_mhz
FN:92,_RNvNtNtCsgPbJLsevrBc_14qsoripper_core6domain4band24band_frequency_range_mhz
FN:49,_RNCNCNvNtNtCsgPbJLsevrBc_14qsoripper_core6domain4band12ADIF_TO_BAND00B9_
FN:57,_RNCNCNvNtNtCsgPbJLsevrBc_14qsoripper_core6domain4band13BAND_TO_ENTRY00B9_
FN:46,_RNCNvNtNtCsgPbJLsevrBc_14qsoripper_core6domain4band12ADIF_TO_BAND0B7_
FN:54,_RNCNvNtNtCsgPbJLsevrBc_14qsoripper_core6domain4band13BAND_TO_ENTRY0B7_
FN:84,_RNCNvNtNtCsgPbJLsevrBc_14qsoripper_core6domain4band23band_from_frequency_mhz0B7_
FN:96,_RNCNvNtNtCsgPbJLsevrBc_14qsoripper_core6domain4band24band_frequency_range_mhz0B7_
FN:49,_RNCNCNvNtNtCs5kss5fdZ6xS_14qsoripper_core6domain4band12ADIF_TO_BAND00B9_
FN:57,_RNCNCNvNtNtCs5kss5fdZ6xS_14qsoripper_core6domain4band13BAND_TO_ENTRY00B9_
FN:46,_RNCNvNtNtCs5kss5fdZ6xS_14qsoripper_core6domain4band12ADIF_TO_BAND0B7_
FN:54,_RNCNvNtNtCs5kss5fdZ6xS_14qsoripper_core6domain4band13BAND_TO_ENTRY0B7_
FN:84,_RNCNvNtNtCs5kss5fdZ6xS_14qsoripper_core6domain4band23band_from_frequency_mhz0B7_
FN:96,_RNCNvNtNtCs5kss5fdZ6xS_14qsoripper_core6domain4band24band_frequency_range_mhz0B7_
FN:148,_RNvNtNtNtCs5kss5fdZ6xS_14qsoripper_core6domain4band5testss_25frequency_to_band_vhf_uhf
FN:176,_RNvNtNtNtCs5kss5fdZ6xS_14qsoripper_core6domain4band5testss_27band_count_matches_adif_317
FN:167,_RNvNtNtNtCs5kss5fdZ6xS_14qsoripper_core6domain4band5testss_27frequency_range_round_trips
FN:139,_RNvNtNtNtCs5kss5fdZ6xS_14qsoripper_core6domain4band5testss_27frequency_to_band_common_hf
FN:155,_RNvNtNtNtCs5kss5fdZ6xS_14qsoripper_core6domain4band5testss_28frequency_to_band_edge_cases
FN:118,_RNvNtNtNtCs5kss5fdZ6xS_14qsoripper_core6domain4band5testss_34band_from_adif_is_case_insensitive
FN:127,_RNvNtNtNtCs5kss5fdZ6xS_14qsoripper_core6domain4band5testss_35band_from_adif_unknown_returns_none
FN:134,_RNvNtNtNtCs5kss5fdZ6xS_14qsoripper_core6domain4band5testss_37band_to_adif_unspecified_returns_none
FN:105,_RNvNtNtNtCs5kss5fdZ6xS_14qsoripper_core6domain4band5testss_40all_bands_round_trip_through_adif_string
FN:108,_RNCNvNtNtNtCs5kss5fdZ6xS_14qsoripper_core6domain4band5testss_40all_bands_round_trip_through_adif_string0B9_
FN:112,_RNCNvNtNtNtCs5kss5fdZ6xS_14qsoripper_core6domain4band5testss_40all_bands_round_trip_through_adif_strings_0B9_
FN:70,_RNvNtNtCs5kss5fdZ6xS_14qsoripper_core6domain4band12band_to_adif
FN:63,_RNvNtNtCs5kss5fdZ6xS_14qsoripper_core6domain4band14band_from_adif
FN:82,_RNvNtNtCs5kss5fdZ6xS_14qsoripper_core6domain4band23band_from_frequency_mhz
FN:92,_RNvNtNtCs5kss5fdZ6xS_14qsoripper_core6domain4band24band_frequency_range_mhz
FNDA:20,_RNvNtNtCsgPbJLsevrBc_14qsoripper_core6domain4band12band_to_adif
FNDA:59,_RNvNtNtCsgPbJLsevrBc_14qsoripper_core6domain4band14band_from_adif
FNDA:11,_RNvNtNtCsgPbJLsevrBc_14qsoripper_core6domain4band23band_from_frequency_mhz
FNDA:0,_RNvNtNtCsgPbJLsevrBc_14qsoripper_core6domain4band24band_frequency_range_mhz
FNDA:99,_RNCNCNvNtNtCsgPbJLsevrBc_14qsoripper_core6domain4band12ADIF_TO_BAND00B9_
FNDA:66,_RNCNCNvNtNtCsgPbJLsevrBc_14qsoripper_core6domain4band13BAND_TO_ENTRY00B9_
FNDA:3,_RNCNvNtNtCsgPbJLsevrBc_14qsoripper_core6domain4band12ADIF_TO_BAND0B7_
FNDA:2,_RNCNvNtNtCsgPbJLsevrBc_14qsoripper_core6domain4band13BAND_TO_ENTRY0B7_
FNDA:77,_RNCNvNtNtCsgPbJLsevrBc_14qsoripper_core6domain4band23band_from_frequency_mhz0B7_
FNDA:0,_RNCNvNtNtCsgPbJLsevrBc_14qsoripper_core6domain4band24band_frequency_range_mhz0B7_
FNDA:33,_RNCNCNvNtNtCs5kss5fdZ6xS_14qsoripper_core6domain4band12ADIF_TO_BAND00B9_
FNDA:33,_RNCNCNvNtNtCs5kss5fdZ6xS_14qsoripper_core6domain4band13BAND_TO_ENTRY00B9_
FNDA:1,_RNCNvNtNtCs5kss5fdZ6xS_14qsoripper_core6domain4band12ADIF_TO_BAND0B7_
FNDA:1,_RNCNvNtNtCs5kss5fdZ6xS_14qsoripper_core6domain4band13BAND_TO_ENTRY0B7_
FNDA:84,_RNCNvNtNtCs5kss5fdZ6xS_14qsoripper_core6domain4band23band_from_frequency_mhz0B7_
FNDA:33,_RNCNvNtNtCs5kss5fdZ6xS_14qsoripper_core6domain4band24band_frequency_range_mhz0B7_
FNDA:1,_RNvNtNtNtCs5kss5fdZ6xS_14qsoripper_core6domain4band5testss_25frequency_to_band_vhf_uhf
FNDA:1,_RNvNtNtNtCs5kss5fdZ6xS_14qsoripper_core6domain4band5testss_27band_count_matches_adif_317
FNDA:1,_RNvNtNtNtCs5kss5fdZ6xS_14qsoripper_core6domain4band5testss_27frequency_range_round_trips
FNDA:1,_RNvNtNtNtCs5kss5fdZ6xS_14qsoripper_core6domain4band5testss_27frequency_to_band_common_hf
FNDA:1,_RNvNtNtNtCs5kss5fdZ6xS_14qsoripper_core6domain4band5testss_28frequency_to_band_edge_cases
FNDA:1,_RNvNtNtNtCs5kss5fdZ6xS_14qsoripper_core6domain4band5testss_34band_from_adif_is_case_insensitive
FNDA:1,_RNvNtNtNtCs5kss5fdZ6xS_14qsoripper_core6domain4band5testss_35band_from_adif_unknown_returns_none
FNDA:1,_RNvNtNtNtCs5kss5fdZ6xS_14qsoripper_core6domain4band5testss_37band_to_adif_unspecified_returns_none
FNDA:1,_RNvNtNtNtCs5kss5fdZ6xS_14qsoripper_core6domain4band5testss_40all_bands_round_trip_through_adif_string
FNDA:0,_RNCNvNtNtNtCs5kss5fdZ6xS_14qsoripper_core6domain4band5testss_40all_bands_round_trip_through_adif_string0B9_
FNDA:0,_RNCNvNtNtNtCs5kss5fdZ6xS_14qsoripper_core6domain4band5testss_40all_bands_round_trip_through_adif_strings_0B9_
FNDA:43,_RNvNtNtCs5kss5fdZ6xS_14qsoripper_core6domain4band12band_to_adif
FNDA:50,_RNvNtNtCs5kss5fdZ6xS_14qsoripper_core6domain4band14band_from_adif
FNDA:12,_RNvNtNtCs5kss5fdZ6xS_14qsoripper_core6domain4band23band_from_frequency_mhz
FNDA:33,_RNvNtNtCs5kss5fdZ6xS_14qsoripper_core6domain4band24band_frequency_range_mhz
FNF:21
FNH:19
DA:46,4
DA:47,4
DA:48,4
DA:49,132
DA:50,4
DA:51,4
DA:54,3
DA:55,3
DA:56,3
DA:57,99
DA:58,3
DA:59,3
DA:63,109
DA:64,109
DA:65,109
DA:66,109
DA:70,63
DA:71,63
DA:72,25
DA:73,38
DA:74,38
DA:75,63
DA:82,23
DA:84,161
DA:86,23
DA:87,15
DA:88,23
DA:92,33
DA:93,33
DA:94,0
DA:95,33
DA:96,33
DA:97,33
DA:105,1
DA:106,34
DA:107,33
DA:108,33
DA:109,33
DA:111,33
DA:112,33
DA:113,33
DA:115,1
DA:118,1
DA:119,1
DA:120,1
DA:121,1
DA:122,1
DA:123,1
DA:124,1
DA:127,1
DA:128,1
DA:129,1
DA:130,1
DA:131,1
DA:134,1
DA:135,1
DA:136,1
DA:139,1
DA:140,1
DA:141,1
DA:142,1
DA:143,1
DA:144,1
DA:145,1
DA:148,1
DA:149,1
DA:150,1
DA:151,1
DA:152,1
DA:155,1
DA:157,1
DA:159,1
DA:161,1
DA:163,1
DA:164,1
DA:167,1
DA:168,34
DA:169,33
DA:170,33
DA:171,33
DA:173,1
DA:176,1
DA:178,1
DA:179,1
BRF:0
BRH:0
LF:90
LH:87
end_of_record
SF:C:\Users\randy\Git\qsoripper-adif-refresh\src\rust\qsoripper-core\src\domain\lookup.rs
FN:10,_RNvNtNtCsgPbJLsevrBc_14qsoripper_core6domain6lookup18normalize_callsign
FN:21,_RNvNtNtCsgPbJLsevrBc_14qsoripper_core6domain6lookup24placeholder_lookup_error
FN:94,_RNvNtNtNtCs5kss5fdZ6xS_14qsoripper_core6domain6lookup5testss_60normalize_callsign_trims_uppercases_and_defaults_blank_input
FN:100,_RNvNtNtNtCs5kss5fdZ6xS_14qsoripper_core6domain6lookup5testss_70placeholder_lookup_error_uses_normalized_callsign_in_result_and_record
FN:10,_RNvNtNtCs5kss5fdZ6xS_14qsoripper_core6domain6lookup18normalize_callsign
FN:21,_RNvNtNtCs5kss5fdZ6xS_14qsoripper_core6domain6lookup24placeholder_lookup_error
FNDA:1134,_RNvNtNtCsgPbJLsevrBc_14qsoripper_core6domain6lookup18normalize_callsign
FNDA:0,_RNvNtNtCsgPbJLsevrBc_14qsoripper_core6domain6lookup24placeholder_lookup_error
FNDA:1,_RNvNtNtNtCs5kss5fdZ6xS_14qsoripper_core6domain6lookup5testss_60normalize_callsign_trims_uppercases_and_defaults_blank_input
FNDA:1,_RNvNtNtNtCs5kss5fdZ6xS_14qsoripper_core6domain6lookup5testss_70placeholder_lookup_error_uses_normalized_callsign_in_result_and_record
FNDA:23,_RNvNtNtCs5kss5fdZ6xS_14qsoripper_core6domain6lookup18normalize_callsign
FNDA:1,_RNvNtNtCs5kss5fdZ6xS_14qsoripper_core6domain6lookup24placeholder_lookup_error
FNF:4
FNH:4
DA:10,1157
DA:11,1157
DA:12,1157
DA:13,121
DA:15,1036
DA:17,1157
DA:21,1
DA:22,1
DA:24,1
DA:25,1
DA:26,1
DA:27,1
DA:28,1
DA:29,1
DA:30,1
DA:31,1
DA:32,1
DA:33,1
DA:34,1
DA:35,1
DA:36,1
DA:37,1
DA:38,1
DA:39,1
DA:40,1
DA:41,1
DA:42,1
DA:43,1
DA:44,1
DA:45,1
DA:46,1
DA:47,1
DA:48,1
DA:49,1
DA:50,1
DA:51,1
DA:52,1
DA:53,1
DA:54,1
DA:55,1
DA:56,1
DA:57,1
DA:58,1
DA:59,1
DA:60,1
DA:61,1
DA:62,1
DA:63,1
DA:64,1
DA:65,1
DA:66,1
DA:67,1
DA:68,1
DA:69,1
DA:70,1
DA:71,1
DA:72,1
DA:73,1
DA:74,1
DA:75,1
DA:76,1
DA:77,1
DA:78,1
DA:79,1
DA:80,1
DA:81,1
DA:82,1
DA:83,1
DA:84,1
DA:85,1
DA:94,1
DA:95,1
DA:96,1
DA:97,1
DA:100,1
DA:101,1
DA:103,1
DA:104,1
DA:105,1
DA:106,1
DA:110,1
DA:111,0
DA:114,1
DA:115,1
DA:116,1
DA:117,1
DA:120,1
BRF:0
BRH:0
LF:87
LH:86
end_of_record
SF:C:\Users\randy\Git\qsoripper-adif-refresh\src\rust\qsoripper-core\src\domain\mode.rs
FN:137,_RNvNtNtCsgPbJLsevrBc_14qsoripper_core6domain4mode12mode_to_adif
FN:104,_RNvNtNtCsgPbJLsevrBc_14qsoripper_core6domain4mode14mode_from_adif
FN:149,_RNvNtNtCsgPbJLsevrBc_14qsoripper_core6domain4mode16is_known_submode
FN:113,_RNvNtNtCsgPbJLsevrBc_14qsoripper_core6domain4mode19import_only_submode
FN:123,_RNvNtNtCsgPbJLsevrBc_14qsoripper_core6domain4mode24normalize_mode_from_adif
FN:73,_RNCNCNvNtNtCsgPbJLsevrBc_14qsoripper_core6domain4mode12ADIF_TO_MODE00B9_
FN:85,_RNCNCNvNtNtCsgPbJLsevrBc_14qsoripper_core6domain4mode16MODE_TO_ADIF_MAP00B9_
FN:93,_RNCNCNvNtNtCsgPbJLsevrBc_14qsoripper_core6domain4mode21SUBMODE_ALIAS_TO_MODE00B9_
FN:70,_RNCNvNtNtCsgPbJLsevrBc_14qsoripper_core6domain4mode12ADIF_TO_MODE0B7_
FN:82,_RNCNvNtNtCsgPbJLsevrBc_14qsoripper_core6domain4mode16MODE_TO_ADIF_MAP0B7_
FN:117,_RNCNvNtNtCsgPbJLsevrBc_14qsoripper_core6domain4mode19import_only_submode0B7_
FN:90,_RNCNvNtNtCsgPbJLsevrBc_14qsoripper_core6domain4mode21SUBMODE_ALIAS_TO_MODE0B7_
FN:132,_RNCNvNtNtCsgPbJLsevrBc_14qsoripper_core6domain4mode24normalize_mode_from_adif0B7_
FN:137,_RNvNtNtCs5kss5fdZ6xS_14qsoripper_core6domain4mode12mode_to_adif
FN:104,_RNvNtNtCs5kss5fdZ6xS_14qsoripper_core6domain4mode14mode_from_adif
FN:149,_RNvNtNtCs5kss5fdZ6xS_14qsoripper_core6domain4mode16is_known_submode
FN:113,_RNvNtNtCs5kss5fdZ6xS_14qsoripper_core6domain4mode19import_only_submode
FN:123,_RNvNtNtCs5kss5fdZ6xS_14qsoripper_core6domain4mode24normalize_mode_from_adif
FN:229,_RNvNtNtNtCs5kss5fdZ6xS_14qsoripper_core6domain4mode5testss_23ssb_submodes_recognized
FN:245,_RNvNtNtNtCs5kss5fdZ6xS_14qsoripper_core6domain4mode5testss_27mode_count_matches_adif_317
FN:236,_RNvNtNtNtCs5kss5fdZ6xS_14qsoripper_core6domain4mode5testss_32digitalvoice_submodes_recognized
FN:177,_RNvNtNtNtCs5kss5fdZ6xS_14qsoripper_core6domain4mode5testss_34mode_from_adif_is_case_insensitive
FN:187,_RNvNtNtNtCs5kss5fdZ6xS_14qsoripper_core6domain4mode5testss_35mode_from_adif_unknown_returns_none
FN:199,_RNvNtNtNtCs5kss5fdZ6xS_14qsoripper_core6domain4mode5testss_37import_only_c4fm_maps_to_digitalvoice
FN:194,_RNvNtNtNtCs5kss5fdZ6xS_14qsoripper_core6domain4mode5testss_37mode_to_adif_unspecified_returns_none
FN:205,_RNvNtNtNtCs5kss5fdZ6xS_14qsoripper_core6domain4mode5testss_38import_only_dstar_maps_to_digitalvoice
FN:217,_RNvNtNtNtCs5kss5fdZ6xS_14qsoripper_core6domain4mode5testss_39normalize_mode_from_known_submode_alias
FN:166,_RNvNtNtNtCs5kss5fdZ6xS_14qsoripper_core6domain4mode5testss_40all_modes_round_trip_through_adif_string
FN:211,_RNvNtNtNtCs5kss5fdZ6xS_14qsoripper_core6domain4mode5testss_40standard_mode_has_no_import_only_submode
FN:73,_RNCNCNvNtNtCs5kss5fdZ6xS_14qsoripper_core6domain4mode12ADIF_TO_MODE00B9_
FN:85,_RNCNCNvNtNtCs5kss5fdZ6xS_14qsoripper_core6domain4mode16MODE_TO_ADIF_MAP00B9_
FN:93,_RNCNCNvNtNtCs5kss5fdZ6xS_14qsoripper_core6domain4mode21SUBMODE_ALIAS_TO_MODE00B9_
FN:70,_RNCNvNtNtCs5kss5fdZ6xS_14qsoripper_core6domain4mode12ADIF_TO_MODE0B7_
FN:82,_RNCNvNtNtCs5kss5fdZ6xS_14qsoripper_core6domain4mode16MODE_TO_ADIF_MAP0B7_
FN:117,_RNCNvNtNtCs5kss5fdZ6xS_14qsoripper_core6domain4mode19import_only_submode0B7_
FN:90,_RNCNvNtNtCs5kss5fdZ6xS_14qsoripper_core6domain4mode21SUBMODE_ALIAS_TO_MODE0B7_
FN:132,_RNCNvNtNtCs5kss5fdZ6xS_14qsoripper_core6domain4mode24normalize_mode_from_adif0B7_
FNDA:20,_RNvNtNtCsgPbJLsevrBc_14qsoripper_core6domain4mode12mode_to_adif
FNDA:56,_RNvNtNtCsgPbJLsevrBc_14qsoripper_core6domain4mode14mode_from_adif
FNDA:0,_RNvNtNtCsgPbJLsevrBc_14qsoripper_core6domain4mode16is_known_submode
FNDA:28,_RNvNtNtCsgPbJLsevrBc_14qsoripper_core6domain4mode19import_only_submode
FNDA:29,_RNvNtNtCsgPbJLsevrBc_14qsoripper_core6domain4mode24normalize_mode_from_adif
FNDA:135,_RNCNCNvNtNtCsgPbJLsevrBc_14qsoripper_core6domain4mode12ADIF_TO_MODE00B9_
FNDA:90,_RNCNCNvNtNtCsgPbJLsevrBc_14qsoripper_core6domain4mode16MODE_TO_ADIF_MAP00B9_
FNDA:187,_RNCNCNvNtNtCsgPbJLsevrBc_14qsoripper_core6domain4mode21SUBMODE_ALIAS_TO_MODE00B9_
FNDA:3,_RNCNvNtNtCsgPbJLsevrBc_14qsoripper_core6domain4mode12ADIF_TO_MODE0B7_
FNDA:2,_RNCNvNtNtCsgPbJLsevrBc_14qsoripper_core6domain4mode16MODE_TO_ADIF_MAP0B7_
FNDA:56,_RNCNvNtNtCsgPbJLsevrBc_14qsoripper_core6domain4mode19import_only_submode0B7_
FNDA:1,_RNCNvNtNtCsgPbJLsevrBc_14qsoripper_core6domain4mode21SUBMODE_ALIAS_TO_MODE0B7_
FNDA:0,_RNCNvNtNtCsgPbJLsevrBc_14qsoripper_core6domain4mode24normalize_mode_from_adif0B7_
FNDA:55,_RNvNtNtCs5kss5fdZ6xS_14qsoripper_core6domain4mode12mode_to_adif
FNDA:72,_RNvNtNtCs5kss5fdZ6xS_14qsoripper_core6domain4mode14mode_from_adif
FNDA:8,_RNvNtNtCs5kss5fdZ6xS_14qsoripper_core6domain4mode16is_known_submode
FNDA:13,_RNvNtNtCs5kss5fdZ6xS_14qsoripper_core6domain4mode19import_only_submode
FNDA:16,_RNvNtNtCs5kss5fdZ6xS_14qsoripper_core6domain4mode24normalize_mode_from_adif
FNDA:1,_RNvNtNtNtCs5kss5fdZ6xS_14qsoripper_core6domain4mode5testss_23ssb_submodes_recognized
FNDA:1,_RNvNtNtNtCs5kss5fdZ6xS_14qsoripper_core6domain4mode5testss_27mode_count_matches_adif_317
FNDA:1,_RNvNtNtNtCs5kss5fdZ6xS_14qsoripper_core6domain4mode5testss_32digitalvoice_submodes_recognized
FNDA:1,_RNvNtNtNtCs5kss5fdZ6xS_14qsoripper_core6domain4mode5testss_34mode_from_adif_is_case_insensitive
FNDA:1,_RNvNtNtNtCs5kss5fdZ6xS_14qsoripper_core6domain4mode5testss_35mode_from_adif_unknown_returns_none
FNDA:1,_RNvNtNtNtCs5kss5fdZ6xS_14qsoripper_core6domain4mode5testss_37import_only_c4fm_maps_to_digitalvoice
FNDA:1,_RNvNtNtNtCs5kss5fdZ6xS_14qsoripper_core6domain4mode5testss_37mode_to_adif_unspecified_returns_none
FNDA:1,_RNvNtNtNtCs5kss5fdZ6xS_14qsoripper_core6domain4mode5testss_38import_only_dstar_maps_to_digitalvoice
FNDA:1,_RNvNtNtNtCs5kss5fdZ6xS_14qsoripper_core6domain4mode5testss_39normalize_mode_from_known_submode_alias
FNDA:1,_RNvNtNtNtCs5kss5fdZ6xS_14qsoripper_core6domain4mode5testss_40all_modes_round_trip_through_adif_string
FNDA:1,_RNvNtNtNtCs5kss5fdZ6xS_14qsoripper_core6domain4mode5testss_40standard_mode_has_no_import_only_submode
FNDA:45,_RNCNCNvNtNtCs5kss5fdZ6xS_14qsoripper_core6domain4mode12ADIF_TO_MODE00B9_
FNDA:45,_RNCNCNvNtNtCs5kss5fdZ6xS_14qsoripper_core6domain4mode16MODE_TO_ADIF_MAP00B9_
FNDA:187,_RNCNCNvNtNtCs5kss5fdZ6xS_14qsoripper_core6domain4mode21SUBMODE_ALIAS_TO_MODE00B9_
FNDA:1,_RNCNvNtNtCs5kss5fdZ6xS_14qsoripper_core6domain4mode12ADIF_TO_MODE0B7_
FNDA:1,_RNCNvNtNtCs5kss5fdZ6xS_14qsoripper_core6domain4mode16MODE_TO_ADIF_MAP0B7_
FNDA:24,_RNCNvNtNtCs5kss5fdZ6xS_14qsoripper_core6domain4mode19import_only_submode0B7_
FNDA:1,_RNCNvNtNtCs5kss5fdZ6xS_14qsoripper_core6domain4mode21SUBMODE_ALIAS_TO_MODE0B7_
FNDA:6,_RNCNvNtNtCs5kss5fdZ6xS_14qsoripper_core6domain4mode24normalize_mode_from_adif0B7_
FNF:24
FNH:24
DA:70,4
DA:71,4
DA:72,4
DA:73,180
DA:74,4
DA:75,12
DA:76,8
DA:77,8
DA:78,4
DA:79,4
DA:82,3
DA:83,3
DA:84,3
DA:85,135
DA:86,3
DA:87,3
DA:90,2
DA:91,2
DA:92,2
DA:93,374
DA:94,374
DA:95,374
DA:96,374
DA:97,374
DA:98,2
DA:99,2
DA:104,128
DA:105,128
DA:106,128
DA:107,128
DA:113,41
DA:114,41
DA:115,41
DA:116,41
DA:117,80
DA:118,41
DA:119,41
DA:123,45
DA:124,45
DA:125,37
DA:126,8
DA:128,8
DA:129,8
DA:130,8
DA:131,8
DA:132,8
DA:133,45
DA:137,75
DA:138,75
DA:139,25
DA:140,50
DA:141,50
DA:142,75
DA:149,8
DA:150,8
DA:151,8
DA:152,3
DA:153,5
DA:154,0
DA:155,0
DA:156,0
DA:158,8
DA:166,1
DA:167,46
DA:168,45
DA:169,45
DA:171,45
DA:172,45
DA:174,1
DA:177,1
DA:178,1
DA:179,1
DA:180,1
DA:181,1
DA:182,1
DA:183,1
DA:184,1
DA:187,1
DA:188,1
DA:189,1
DA:190,1
DA:191,1
DA:194,1
DA:195,1
DA:196,1
DA:199,1
DA:200,1
DA:201,1
DA:202,1
DA:205,1
DA:206,1
DA:207,1
DA:208,1
DA:211,1
DA:212,1
DA:213,1
DA:214,1
DA:217,1
DA:218,1
DA:219,1
DA:222,1
DA:223,1
DA:226,1
DA:229,1
DA:230,1
DA:231,1
DA:232,1
DA:233,1
DA:236,1
DA:237,1
DA:238,1
DA:239,1
DA:240,1
DA:241,1
DA:242,1
DA:245,1
DA:247,1
DA:248,1
BRF:0
BRH:0
LF:123
LH:120
end_of_record
SF:C:\Users\randy\Git\qsoripper-adif-refresh\src\rust\qsoripper-core\src\domain\qso.rs
FN:74,_RNvMNtNtCsgPbJLsevrBc_14qsoripper_core6domain3qsoNtB2_16QsoRecordBuilder13frequency_khz
FN:53,_RNvMNtNtCsgPbJLsevrBc_14qsoripper_core6domain3qsoNtB2_16QsoRecordBuilder4band
FN:60,_RNvMNtNtCsgPbJLsevrBc_14qsoripper_core6domain3qsoNtB2_16QsoRecordBuilder4mode
FN:116,_RNvMNtNtCsgPbJLsevrBc_14qsoripper_core6domain3qsoNtB2_16QsoRecordBuilder5build
FN:81,_RNvMNtNtCsgPbJLsevrBc_14qsoripper_core6domain3qsoNtB2_16QsoRecordBuilder9timestamp
FN:123,_RNvNtNtCsgPbJLsevrBc_14qsoripper_core6domain3qso12new_local_id
FN:21,_RNvNtNtCsgPbJLsevrBc_14qsoripper_core6domain3qso18qsl_status_to_adif
FN:8,_RNvNtNtCsgPbJLsevrBc_14qsoripper_core6domain3qso20qsl_status_from_adif
FN:109,_RINvMNtNtCsgPbJLsevrBc_14qsoripper_core6domain3qsoNtB3_16QsoRecordBuilder11extra_fieldppEB7_
FN:39,_RINvMNtNtCsgPbJLsevrBc_14qsoripper_core6domain3qsoNtB3_16QsoRecordBuilder3newppEB7_
FN:102,_RINvMNtNtCsgPbJLsevrBc_14qsoripper_core6domain3qsoNtB3_16QsoRecordBuilder5notespEB7_
FN:95,_RINvMNtNtCsgPbJLsevrBc_14qsoripper_core6domain3qsoNtB3_16QsoRecordBuilder7commentpEB7_
FN:88,_RINvMNtNtCsgPbJLsevrBc_14qsoripper_core6domain3qsoNtB3_16QsoRecordBuilder7contestpEB7_
FN:67,_RINvMNtNtCsgPbJLsevrBc_14qsoripper_core6domain3qsoNtB3_16QsoRecordBuilder7submodepEB7_
FN:102,_RINvMNtNtCs5kss5fdZ6xS_14qsoripper_core6domain3qsoNtB3_16QsoRecordBuilder5notespEB7_
FN:88,_RINvMNtNtCs5kss5fdZ6xS_14qsoripper_core6domain3qsoNtB3_16QsoRecordBuilder7contestpEB7_
FN:81,_RNvMNtNtCs5kss5fdZ6xS_14qsoripper_core6domain3qsoNtB2_16QsoRecordBuilder9timestamp
FN:74,_RNvMNtNtCs5kss5fdZ6xS_14qsoripper_core6domain3qsoNtB2_16QsoRecordBuilder13frequency_khz
FN:53,_RNvMNtNtCs5kss5fdZ6xS_14qsoripper_core6domain3qsoNtB2_16QsoRecordBuilder4band
FN:60,_RNvMNtNtCs5kss5fdZ6xS_14qsoripper_core6domain3qsoNtB2_16QsoRecordBuilder4mode
FN:116,_RNvMNtNtCs5kss5fdZ6xS_14qsoripper_core6domain3qsoNtB2_16QsoRecordBuilder5build
FN:123,_RNvNtNtCs5kss5fdZ6xS_14qsoripper_core6domain3qso12new_local_id
FN:21,_RNvNtNtCs5kss5fdZ6xS_14qsoripper_core6domain3qso18qsl_status_to_adif
FN:8,_RNvNtNtCs5kss5fdZ6xS_14qsoripper_core6domain3qso20qsl_status_from_adif
FN:212,_RNvNtNtNtCs5kss5fdZ6xS_14qsoripper_core6domain3qso5testss_19builder_submode_set
FN:133,_RNvNtNtNtCs5kss5fdZ6xS_14qsoripper_core6domain3qso5testss_22qsl_status_round_trips
FN:151,_RNvNtNtNtCs5kss5fdZ6xS_14qsoripper_core6domain3qso5testss_27qsl_status_case_insensitive
FN:165,_RNvNtNtNtCs5kss5fdZ6xS_14qsoripper_core6domain3qso5testss_28builder_creates_valid_record
FN:184,_RNvNtNtNtCs5kss5fdZ6xS_14qsoripper_core6domain3qso5testss_30builder_extra_fields_preserved
FN:202,_RNvNtNtNtCs5kss5fdZ6xS_14qsoripper_core6domain3qso5testss_34builder_generates_unique_local_ids
FN:158,_RNvNtNtNtCs5kss5fdZ6xS_14qsoripper_core6domain3qso5testss_38qsl_status_unknown_returns_unspecified
FN:223,_RNvNtNtNtCs5kss5fdZ6xS_14qsoripper_core6domain3qso5testss_40default_qso_record_has_expected_defaults
FN:234,_RNvNtNtNtCs5kss5fdZ6xS_14qsoripper_core6domain3qso5testss_41qso_record_prost_serialization_round_trip
FN:109,_RINvMNtNtCs5kss5fdZ6xS_14qsoripper_core6domain3qsoNtB3_16QsoRecordBuilder11extra_fieldReB1m_EB7_
FN:39,_RINvMNtNtCs5kss5fdZ6xS_14qsoripper_core6domain3qsoNtB3_16QsoRecordBuilder3newReB1d_EB7_
FN:95,_RINvMNtNtCs5kss5fdZ6xS_14qsoripper_core6domain3qsoNtB3_16QsoRecordBuilder7commentNtNtCs2ocB3yIIgEv_5alloc6string6StringEB7_
FN:95,_RINvMNtNtCs5kss5fdZ6xS_14qsoripper_core6domain3qsoNtB3_16QsoRecordBuilder7commentReEB7_
FN:67,_RINvMNtNtCs5kss5fdZ6xS_14qsoripper_core6domain3qsoNtB3_16QsoRecordBuilder7submodeReEB7_
FN:39,_RINvMNtNtCsgPbJLsevrBc_14qsoripper_core6domain3qsoNtB3_16QsoRecordBuilder3newReB1d_ECsaQT5tdxFSLB_24qsoripper_storage_memory
FN:88,_RINvMNtNtCsgPbJLsevrBc_14qsoripper_core6domain3qsoNtB3_16QsoRecordBuilder7contestReECsaQT5tdxFSLB_24qsoripper_storage_memory
FN:39,_RINvMNtNtCsgPbJLsevrBc_14qsoripper_core6domain3qsoNtB3_16QsoRecordBuilder3newReB1d_ECslOMEjNOpVly_24qsoripper_storage_sqlite
FN:88,_RINvMNtNtCsgPbJLsevrBc_14qsoripper_core6domain3qsoNtB3_16QsoRecordBuilder7contestReECslOMEjNOpVly_24qsoripper_storage_sqlite
FNDA:0,_RNvMNtNtCsgPbJLsevrBc_14qsoripper_core6domain3qsoNtB2_16QsoRecordBuilder13frequency_khz
FNDA:6,_RNvMNtNtCsgPbJLsevrBc_14qsoripper_core6domain3qsoNtB2_16QsoRecordBuilder4band
FNDA:6,_RNvMNtNtCsgPbJLsevrBc_14qsoripper_core6domain3qsoNtB2_16QsoRecordBuilder4mode
FNDA:6,_RNvMNtNtCsgPbJLsevrBc_14qsoripper_core6domain3qsoNtB2_16QsoRecordBuilder5build
FNDA:6,_RNvMNtNtCsgPbJLsevrBc_14qsoripper_core6domain3qsoNtB2_16QsoRecordBuilder9timestamp
FNDA:59,_RNvNtNtCsgPbJLsevrBc_14qsoripper_core6domain3qso12new_local_id
FNDA:40,_RNvNtNtCsgPbJLsevrBc_14qsoripper_core6domain3qso18qsl_status_to_adif
FNDA:4,_RNvNtNtCsgPbJLsevrBc_14qsoripper_core6domain3qso20qsl_status_from_adif
FNDA:0,_RINvMNtNtCsgPbJLsevrBc_14qsoripper_core6domain3qsoNtB3_16QsoRecordBuilder11extra_fieldppEB7_
FNDA:0,_RINvMNtNtCsgPbJLsevrBc_14qsoripper_core6domain3qsoNtB3_16QsoRecordBuilder3newppEB7_
FNDA:0,_RINvMNtNtCsgPbJLsevrBc_14qsoripper_core6domain3qsoNtB3_16QsoRecordBuilder5notespEB7_
FNDA:0,_RINvMNtNtCsgPbJLsevrBc_14qsoripper_core6domain3qsoNtB3_16QsoRecordBuilder7commentpEB7_
FNDA:0,_RINvMNtNtCsgPbJLsevrBc_14qsoripper_core6domain3qsoNtB3_16QsoRecordBuilder7contestpEB7_
FNDA:0,_RINvMNtNtCsgPbJLsevrBc_14qsoripper_core6domain3qsoNtB3_16QsoRecordBuilder7submodepEB7_
FNDA:0,_RINvMNtNtCs5kss5fdZ6xS_14qsoripper_core6domain3qsoNtB3_16QsoRecordBuilder5notespEB7_
FNDA:0,_RINvMNtNtCs5kss5fdZ6xS_14qsoripper_core6domain3qsoNtB3_16QsoRecordBuilder7contestpEB7_
FNDA:0,_RNvMNtNtCs5kss5fdZ6xS_14qsoripper_core6domain3qsoNtB2_16QsoRecordBuilder9timestamp
FNDA:2,_RNvMNtNtCs5kss5fdZ6xS_14qsoripper_core6domain3qsoNtB2_16QsoRecordBuilder13frequency_khz
FNDA:2,_RNvMNtNtCs5kss5fdZ6xS_14qsoripper_core6domain3qsoNtB2_16QsoRecordBuilder4band
FNDA:3,_RNvMNtNtCs5kss5fdZ6xS_14qsoripper_core6domain3qsoNtB2_16QsoRecordBuilder4mode
FNDA:6,_RNvMNtNtCs5kss5fdZ6xS_14qsoripper_core6domain3qsoNtB2_16QsoRecordBuilder5build
FNDA:35,_RNvNtNtCs5kss5fdZ6xS_14qsoripper_core6domain3qso12new_local_id
FNDA:24,_RNvNtNtCs5kss5fdZ6xS_14qsoripper_core6domain3qso18qsl_status_to_adif
FNDA:14,_RNvNtNtCs5kss5fdZ6xS_14qsoripper_core6domain3qso20qsl_status_from_adif
FNDA:1,_RNvNtNtNtCs5kss5fdZ6xS_14qsoripper_core6domain3qso5testss_19builder_submode_set
FNDA:1,_RNvNtNtNtCs5kss5fdZ6xS_14qsoripper_core6domain3qso5testss_22qsl_status_round_trips
FNDA:1,_RNvNtNtNtCs5kss5fdZ6xS_14qsoripper_core6domain3qso5testss_27qsl_status_case_insensitive
FNDA:1,_RNvNtNtNtCs5kss5fdZ6xS_14qsoripper_core6domain3qso5testss_28builder_creates_valid_record
FNDA:1,_RNvNtNtNtCs5kss5fdZ6xS_14qsoripper_core6domain3qso5testss_30builder_extra_fields_preserved
FNDA:1,_RNvNtNtNtCs5kss5fdZ6xS_14qsoripper_core6domain3qso5testss_34builder_generates_unique_local_ids
FNDA:1,_RNvNtNtNtCs5kss5fdZ6xS_14qsoripper_core6domain3qso5testss_38qsl_status_unknown_returns_unspecified
FNDA:1,_RNvNtNtNtCs5kss5fdZ6xS_14qsoripper_core6domain3qso5testss_40default_qso_record_has_expected_defaults
FNDA:1,_RNvNtNtNtCs5kss5fdZ6xS_14qsoripper_core6domain3qso5testss_41qso_record_prost_serialization_round_trip
FNDA:3,_RINvMNtNtCs5kss5fdZ6xS_14qsoripper_core6domain3qsoNtB3_16QsoRecordBuilder11extra_fieldReB1m_EB7_
FNDA:6,_RINvMNtNtCs5kss5fdZ6xS_14qsoripper_core6domain3qsoNtB3_16QsoRecordBuilder3newReB1d_EB7_
FNDA:1,_RINvMNtNtCs5kss5fdZ6xS_14qsoripper_core6domain3qsoNtB3_16QsoRecordBuilder7commentNtNtCs2ocB3yIIgEv_5alloc6string6StringEB7_
FNDA:1,_RINvMNtNtCs5kss5fdZ6xS_14qsoripper_core6domain3qsoNtB3_16QsoRecordBuilder7commentReEB7_
FNDA:1,_RINvMNtNtCs5kss5fdZ6xS_14qsoripper_core6domain3qsoNtB3_16QsoRecordBuilder7submodeReEB7_
FNDA:3,_RINvMNtNtCsgPbJLsevrBc_14qsoripper_core6domain3qsoNtB3_16QsoRecordBuilder3newReB1d_ECsaQT5tdxFSLB_24qsoripper_storage_memory
FNDA:1,_RINvMNtNtCsgPbJLsevrBc_14qsoripper_core6domain3qsoNtB3_16QsoRecordBuilder7contestReECsaQT5tdxFSLB_24qsoripper_storage_memory
FNDA:3,_RINvMNtNtCsgPbJLsevrBc_14qsoripper_core6domain3qsoNtB3_16QsoRecordBuilder3newReB1d_ECslOMEjNOpVly_24qsoripper_storage_sqlite
FNDA:1,_RINvMNtNtCsgPbJLsevrBc_14qsoripper_core6domain3qsoNtB3_16QsoRecordBuilder7contestReECslOMEjNOpVly_24qsoripper_storage_sqlite
FNF:23
FNH:22
DA:8,18
DA:9,18
DA:10,18
DA:11,8
DA:12,6
DA:13,4
DA:14,3
DA:15,2
DA:17,18
DA:21,64
DA:22,64
DA:23,1
DA:24,1
DA:25,1
DA:26,1
DA:27,1
DA:28,59
DA:30,64
DA:39,12
DA:40,12
DA:41,12
DA:42,12
DA:43,12
DA:44,12
DA:45,12
DA:46,12
DA:47,12
DA:48,12
DA:49,12
DA:53,8
DA:54,8
DA:55,8
DA:56,8
DA:60,9
DA:61,9
DA:62,9
DA:63,9
DA:67,1
DA:68,1
DA:69,1
DA:70,1
DA:74,2
DA:75,2
DA:76,2
DA:77,2
DA:81,6
DA:82,6
DA:83,6
DA:84,6
DA:88,2
DA:89,2
DA:90,2
DA:91,2
DA:95,2
DA:96,2
DA:97,2
DA:98,2
DA:102,0
DA:103,0
DA:104,0
DA:105,0
DA:109,3
DA:110,3
DA:111,3
DA:112,3
DA:116,12
DA:117,12
DA:118,12
DA:123,94
DA:124,94
DA:125,94
DA:133,1
DA:134,1
DA:135,1
DA:136,1
DA:137,1
DA:138,1
DA:139,1
DA:140,1
DA:141,6
DA:142,5
DA:143,5
DA:145,5
DA:146,5
DA:148,1
DA:151,1
DA:152,1
DA:153,1
DA:154,1
DA:155,1
DA:158,1
DA:159,1
DA:160,1
DA:161,1
DA:162,1
DA:165,1
DA:166,1
DA:167,1
DA:168,1
DA:169,1
DA:170,1
DA:171,1
DA:173,1
DA:174,1
DA:175,1
DA:176,1
DA:177,1
DA:178,1
DA:179,1
DA:180,1
DA:181,1
DA:184,1
DA:185,1
DA:186,1
DA:187,1
DA:188,1
DA:190,1
DA:191,1
DA:194,1
DA:195,1
DA:198,1
DA:199,1
DA:202,1
DA:203,1
DA:204,1
DA:206,1
DA:207,1
DA:208,1
DA:209,1
DA:212,1
DA:213,1
DA:214,1
DA:215,1
DA:216,1
DA:218,1
DA:219,1
DA:220,1
DA:223,1
DA:224,1
DA:225,1
DA:226,1
DA:227,1
DA:228,1
DA:229,1
DA:230,1
DA:231,1
DA:234,1
DA:237,1
DA:238,1
DA:239,1
DA:240,1
DA:241,1
DA:242,1
DA:243,1
DA:246,1
DA:247,1
DA:248,1
DA:251,1
DA:252,1
DA:253,1
DA:254,1
DA:255,1
DA:256,1
DA:257,1
DA:258,1
DA:259,1
DA:262,1
BRF:0
BRH:0
LF:167
LH:163
end_of_record
SF:C:\Users\randy\Git\qsoripper-adif-refresh\src\rust\qsoripper-core\src\domain\station.rs
FN:293,_RNvNtNtCsgPbJLsevrBc_14qsoripper_core6domain7station17trimmed_non_empty
FN:273,_RNvNtNtCsgPbJLsevrBc_14qsoripper_core6domain7station21merge_optional_string
FN:196,_RNvNtNtCsgPbJLsevrBc_14qsoripper_core6domain7station22merge_station_snapshot
FN:285,_RNvNtNtCsgPbJLsevrBc_14qsoripper_core6domain7station25normalize_optional_string
FN:289,_RNvNtNtCsgPbJLsevrBc_14qsoripper_core6domain7station25normalize_required_string
FN:30,_RNvNtNtCsgPbJLsevrBc_14qsoripper_core6domain7station26effective_station_snapshot
FN:258,_RNvNtNtCsgPbJLsevrBc_14qsoripper_core6domain7station26normalize_station_snapshot
FN:96,_RNvNtNtCsgPbJLsevrBc_14qsoripper_core6domain7station26station_profile_has_values
FN:147,_RNvNtNtCsgPbJLsevrBc_14qsoripper_core6domain7station27station_snapshot_has_values
FN:7,_RNvNtNtCsgPbJLsevrBc_14qsoripper_core6domain7station29station_snapshot_from_profile
FN:41,_RNvNtNtCsgPbJLsevrBc_14qsoripper_core6domain7station39materialize_station_snapshot_for_create
FN:72,_RNvNtNtCsgPbJLsevrBc_14qsoripper_core6domain7station39materialize_station_snapshot_for_update
FN:57,_RNCNCNvNtNtCsgPbJLsevrBc_14qsoripper_core6domain7station39materialize_station_snapshot_for_create00B9_
FN:295,_RNCNvNtNtCsgPbJLsevrBc_14qsoripper_core6domain7station17trimmed_non_empty0B7_
FN:236,_RNCNvNtNtCsgPbJLsevrBc_14qsoripper_core6domain7station22merge_station_snapshot0B7_
FN:242,_RNCNvNtNtCsgPbJLsevrBc_14qsoripper_core6domain7station22merge_station_snapshots0_0B7_
FN:239,_RNCNvNtNtCsgPbJLsevrBc_14qsoripper_core6domain7station22merge_station_snapshots_0B7_
FN:267,_RNCNvNtNtCsgPbJLsevrBc_14qsoripper_core6domain7station26normalize_station_snapshot0B7_
FN:269,_RNCNvNtNtCsgPbJLsevrBc_14qsoripper_core6domain7station26normalize_station_snapshots0_0B7_
FN:268,_RNCNvNtNtCsgPbJLsevrBc_14qsoripper_core6domain7station26normalize_station_snapshots_0B7_
FN:17,_RNCNvNtNtCsgPbJLsevrBc_14qsoripper_core6domain7station29station_snapshot_from_profile0B7_
FN:19,_RNCNvNtNtCsgPbJLsevrBc_14qsoripper_core6domain7station29station_snapshot_from_profiles0_0B7_
FN:18,_RNCNvNtNtCsgPbJLsevrBc_14qsoripper_core6domain7station29station_snapshot_from_profiles_0B7_
FN:54,_RNCNvNtNtCsgPbJLsevrBc_14qsoripper_core6domain7station39materialize_station_snapshot_for_create0B7_
FN:59,_RNCNvNtNtCsgPbJLsevrBc_14qsoripper_core6domain7station39materialize_station_snapshot_for_creates_0B7_
FN:82,_RNCNvNtNtCsgPbJLsevrBc_14qsoripper_core6domain7station39materialize_station_snapshot_for_update0B7_
FN:96,_RNvNtNtCs5kss5fdZ6xS_14qsoripper_core6domain7station26station_profile_has_values
FN:384,_RNvNtNtNtCs5kss5fdZ6xS_14qsoripper_core6domain7station5testss_45update_allows_clearing_optional_string_fields
FN:304,_RNvNtNtNtCs5kss5fdZ6xS_14qsoripper_core6domain7station5testss_48create_materializes_snapshot_from_active_profile
FN:330,_RNvNtNtNtCs5kss5fdZ6xS_14qsoripper_core6domain7station5testss_51request_snapshot_overrides_active_profile_on_create
FN:356,_RNvNtNtNtCs5kss5fdZ6xS_14qsoripper_core6domain7station5testss_57update_preserves_existing_snapshot_when_request_is_silent
FN:293,_RNvNtNtCs5kss5fdZ6xS_14qsoripper_core6domain7station17trimmed_non_empty
FN:273,_RNvNtNtCs5kss5fdZ6xS_14qsoripper_core6domain7station21merge_optional_string
FN:196,_RNvNtNtCs5kss5fdZ6xS_14qsoripper_core6domain7station22merge_station_snapshot
FN:285,_RNvNtNtCs5kss5fdZ6xS_14qsoripper_core6domain7station25normalize_optional_string
FN:289,_RNvNtNtCs5kss5fdZ6xS_14qsoripper_core6domain7station25normalize_required_string
FN:30,_RNvNtNtCs5kss5fdZ6xS_14qsoripper_core6domain7station26effective_station_snapshot
FN:258,_RNvNtNtCs5kss5fdZ6xS_14qsoripper_core6domain7station26normalize_station_snapshot
FN:147,_RNvNtNtCs5kss5fdZ6xS_14qsoripper_core6domain7station27station_snapshot_has_values
FN:7,_RNvNtNtCs5kss5fdZ6xS_14qsoripper_core6domain7station29station_snapshot_from_profile
FN:41,_RNvNtNtCs5kss5fdZ6xS_14qsoripper_core6domain7station39materialize_station_snapshot_for_create
FN:72,_RNvNtNtCs5kss5fdZ6xS_14qsoripper_core6domain7station39materialize_station_snapshot_for_update
FN:57,_RNCNCNvNtNtCs5kss5fdZ6xS_14qsoripper_core6domain7station39materialize_station_snapshot_for_create00B9_
FN:295,_RNCNvNtNtCs5kss5fdZ6xS_14qsoripper_core6domain7station17trimmed_non_empty0B7_
FN:236,_RNCNvNtNtCs5kss5fdZ6xS_14qsoripper_core6domain7station22merge_station_snapshot0B7_
FN:242,_RNCNvNtNtCs5kss5fdZ6xS_14qsoripper_core6domain7station22merge_station_snapshots0_0B7_
FN:239,_RNCNvNtNtCs5kss5fdZ6xS_14qsoripper_core6domain7station22merge_station_snapshots_0B7_
FN:267,_RNCNvNtNtCs5kss5fdZ6xS_14qsoripper_core6domain7station26normalize_station_snapshot0B7_
FN:269,_RNCNvNtNtCs5kss5fdZ6xS_14qsoripper_core6domain7station26normalize_station_snapshots0_0B7_
FN:268,_RNCNvNtNtCs5kss5fdZ6xS_14qsoripper_core6domain7station26normalize_station_snapshots_0B7_
FN:17,_RNCNvNtNtCs5kss5fdZ6xS_14qsoripper_core6domain7station29station_snapshot_from_profile0B7_
FN:19,_RNCNvNtNtCs5kss5fdZ6xS_14qsoripper_core6domain7station29station_snapshot_from_profiles0_0B7_
FN:18,_RNCNvNtNtCs5kss5fdZ6xS_14qsoripper_core6domain7station29station_snapshot_from_profiles_0B7_
FN:54,_RNCNvNtNtCs5kss5fdZ6xS_14qsoripper_core6domain7station39materialize_station_snapshot_for_create0B7_
FN:59,_RNCNvNtNtCs5kss5fdZ6xS_14qsoripper_core6domain7station39materialize_station_snapshot_for_creates_0B7_
FN:82,_RNCNvNtNtCs5kss5fdZ6xS_14qsoripper_core6domain7station39materialize_station_snapshot_for_update0B7_
FNDA:349,_RNvNtNtCsgPbJLsevrBc_14qsoripper_core6domain7station17trimmed_non_empty
FNDA:136,_RNvNtNtCsgPbJLsevrBc_14qsoripper_core6domain7station21merge_optional_string
FNDA:17,_RNvNtNtCsgPbJLsevrBc_14qsoripper_core6domain7station22merge_station_snapshot
FNDA:600,_RNvNtNtCsgPbJLsevrBc_14qsoripper_core6domain7station25normalize_optional_string
FNDA:97,_RNvNtNtCsgPbJLsevrBc_14qsoripper_core6domain7station25normalize_required_string
FNDA:22,_RNvNtNtCsgPbJLsevrBc_14qsoripper_core6domain7station26effective_station_snapshot
FNDA:67,_RNvNtNtCsgPbJLsevrBc_14qsoripper_core6domain7station26normalize_station_snapshot
FNDA:89,_RNvNtNtCsgPbJLsevrBc_14qsoripper_core6domain7station26station_profile_has_values
FNDA:87,_RNvNtNtCsgPbJLsevrBc_14qsoripper_core6domain7station27station_snapshot_has_values
FNDA:8,_RNvNtNtCsgPbJLsevrBc_14qsoripper_core6domain7station29station_snapshot_from_profile
FNDA:35,_RNvNtNtCsgPbJLsevrBc_14qsoripper_core6domain7station39materialize_station_snapshot_for_create
FNDA:2,_RNvNtNtCsgPbJLsevrBc_14qsoripper_core6domain7station39materialize_station_snapshot_for_update
FNDA:0,_RNCNCNvNtNtCsgPbJLsevrBc_14qsoripper_core6domain7station39materialize_station_snapshot_for_create00B9_
FNDA:297,_RNCNvNtNtCsgPbJLsevrBc_14qsoripper_core6domain7station17trimmed_non_empty0B7_
FNDA:0,_RNCNvNtNtCsgPbJLsevrBc_14qsoripper_core6domain7station22merge_station_snapshot0B7_
FNDA:0,_RNCNvNtNtCsgPbJLsevrBc_14qsoripper_core6domain7station22merge_station_snapshots0_0B7_
FNDA:0,_RNCNvNtNtCsgPbJLsevrBc_14qsoripper_core6domain7station22merge_station_snapshots_0B7_
FNDA:0,_RNCNvNtNtCsgPbJLsevrBc_14qsoripper_core6domain7station26normalize_station_snapshot0B7_
FNDA:0,_RNCNvNtNtCsgPbJLsevrBc_14qsoripper_core6domain7station26normalize_station_snapshots0_0B7_
FNDA:0,_RNCNvNtNtCsgPbJLsevrBc_14qsoripper_core6domain7station26normalize_station_snapshots_0B7_
FNDA:0,_RNCNvNtNtCsgPbJLsevrBc_14qsoripper_core6domain7station29station_snapshot_from_profile0B7_
FNDA:0,_RNCNvNtNtCsgPbJLsevrBc_14qsoripper_core6domain7station29station_snapshot_from_profiles0_0B7_
FNDA:0,_RNCNvNtNtCsgPbJLsevrBc_14qsoripper_core6domain7station29station_snapshot_from_profiles_0B7_
FNDA:7,_RNCNvNtNtCsgPbJLsevrBc_14qsoripper_core6domain7station39materialize_station_snapshot_for_create0B7_
FNDA:7,_RNCNvNtNtCsgPbJLsevrBc_14qsoripper_core6domain7station39materialize_station_snapshot_for_creates_0B7_
FNDA:2,_RNCNvNtNtCsgPbJLsevrBc_14qsoripper_core6domain7station39materialize_station_snapshot_for_update0B7_
FNDA:0,_RNvNtNtCs5kss5fdZ6xS_14qsoripper_core6domain7station26station_profile_has_values
FNDA:1,_RNvNtNtNtCs5kss5fdZ6xS_14qsoripper_core6domain7station5testss_45update_allows_clearing_optional_string_fields
FNDA:1,_RNvNtNtNtCs5kss5fdZ6xS_14qsoripper_core6domain7station5testss_48create_materializes_snapshot_from_active_profile
FNDA:1,_RNvNtNtNtCs5kss5fdZ6xS_14qsoripper_core6domain7station5testss_51request_snapshot_overrides_active_profile_on_create
FNDA:1,_RNvNtNtNtCs5kss5fdZ6xS_14qsoripper_core6domain7station5testss_57update_preserves_existing_snapshot_when_request_is_silent
FNDA:61,_RNvNtNtCs5kss5fdZ6xS_14qsoripper_core6domain7station17trimmed_non_empty
FNDA:16,_RNvNtNtCs5kss5fdZ6xS_14qsoripper_core6domain7station21merge_optional_string
FNDA:2,_RNvNtNtCs5kss5fdZ6xS_14qsoripper_core6domain7station22merge_station_snapshot
FNDA:152,_RNvNtNtCs5kss5fdZ6xS_14qsoripper_core6domain7station25normalize_optional_string
FNDA:30,_RNvNtNtCs5kss5fdZ6xS_14qsoripper_core6domain7station25normalize_required_string
FNDA:11,_RNvNtNtCs5kss5fdZ6xS_14qsoripper_core6domain7station26effective_station_snapshot
FNDA:17,_RNvNtNtCs5kss5fdZ6xS_14qsoripper_core6domain7station26normalize_station_snapshot
FNDA:25,_RNvNtNtCs5kss5fdZ6xS_14qsoripper_core6domain7station27station_snapshot_has_values
FNDA:2,_RNvNtNtCs5kss5fdZ6xS_14qsoripper_core6domain7station29station_snapshot_from_profile
FNDA:2,_RNvNtNtCs5kss5fdZ6xS_14qsoripper_core6domain7station39materialize_station_snapshot_for_create
FNDA:2,_RNvNtNtCs5kss5fdZ6xS_14qsoripper_core6domain7station39materialize_station_snapshot_for_update
FNDA:0,_RNCNCNvNtNtCs5kss5fdZ6xS_14qsoripper_core6domain7station39materialize_station_snapshot_for_create00B9_
FNDA:51,_RNCNvNtNtCs5kss5fdZ6xS_14qsoripper_core6domain7station17trimmed_non_empty0B7_
FNDA:0,_RNCNvNtNtCs5kss5fdZ6xS_14qsoripper_core6domain7station22merge_station_snapshot0B7_
FNDA:0,_RNCNvNtNtCs5kss5fdZ6xS_14qsoripper_core6domain7station22merge_station_snapshots0_0B7_
FNDA:0,_RNCNvNtNtCs5kss5fdZ6xS_14qsoripper_core6domain7station22merge_station_snapshots_0B7_
FNDA:0,_RNCNvNtNtCs5kss5fdZ6xS_14qsoripper_core6domain7station26normalize_station_snapshot0B7_
FNDA:0,_RNCNvNtNtCs5kss5fdZ6xS_14qsoripper_core6domain7station26normalize_station_snapshots0_0B7_
FNDA:2,_RNCNvNtNtCs5kss5fdZ6xS_14qsoripper_core6domain7station26normalize_station_snapshots_0B7_
FNDA:0,_RNCNvNtNtCs5kss5fdZ6xS_14qsoripper_core6domain7station29station_snapshot_from_profile0B7_
FNDA:0,_RNCNvNtNtCs5kss5fdZ6xS_14qsoripper_core6domain7station29station_snapshot_from_profiles0_0B7_
FNDA:1,_RNCNvNtNtCs5kss5fdZ6xS_14qsoripper_core6domain7station29station_snapshot_from_profiles_0B7_
FNDA:1,_RNCNvNtNtCs5kss5fdZ6xS_14qsoripper_core6domain7station39materialize_station_snapshot_for_create0B7_
FNDA:1,_RNCNvNtNtCs5kss5fdZ6xS_14qsoripper_core6domain7station39materialize_station_snapshot_for_creates_0B7_
FNDA:0,_RNCNvNtNtCs5kss5fdZ6xS_14qsoripper_core6domain7station39materialize_station_snapshot_for_update0B7_
FNF:30
FNH:22
DA:7,10
DA:8,10
DA:9,10
DA:10,10
DA:11,10
DA:12,10
DA:13,10
DA:14,10
DA:15,10
DA:16,10
DA:17,10
DA:18,10
DA:19,10
DA:20,10
DA:21,10
DA:22,10
DA:24,10
DA:25,10
DA:26,10
DA:30,33
DA:31,33
DA:32,33
DA:33,33
DA:34,13
DA:35,20
DA:36,33
DA:37,33
DA:38,33
DA:41,37
DA:42,37
DA:43,37
DA:44,37
DA:45,37
DA:46,37
DA:47,37
DA:49,37
DA:50,18
DA:51,19
DA:53,37
DA:54,37
DA:55,8
DA:56,8
DA:57,8
DA:58,8
DA:59,37
DA:60,37
DA:62,37
DA:63,37
DA:64,36
DA:65,36
DA:67,37
DA:68,37
DA:69,37
DA:72,4
DA:73,4
DA:74,4
DA:75,4
DA:77,4
DA:78,1
DA:79,3
DA:81,4
DA:82,4
DA:83,4
DA:85,4
DA:86,4
DA:87,4
DA:88,4
DA:90,4
DA:91,4
DA:92,4
DA:96,89
DA:97,89
DA:98,27
DA:99,27
DA:100,27
DA:101,27
DA:102,27
DA:103,27
DA:104,27
DA:105,27
DA:106,27
DA:107,27
DA:108,27
DA:109,27
DA:110,27
DA:111,27
DA:112,27
DA:113,27
DA:114,27
DA:115,27
DA:116,27
DA:117,27
DA:118,27
DA:119,27
DA:120,27
DA:121,27
DA:122,27
DA:123,27
DA:124,27
DA:125,27
DA:126,27
DA:127,27
DA:128,27
DA:129,27
DA:130,27
DA:131,27
DA:132,27
DA:133,27
DA:134,27
DA:135,27
DA:136,27
DA:137,27
DA:138,27
DA:139,27
DA:140,27
DA:141,27
DA:142,27
DA:143,89
DA:147,112
DA:148,112
DA:149,21
DA:150,21
DA:151,21
DA:152,21
DA:153,21
DA:154,21
DA:155,21
DA:156,21
DA:157,21
DA:158,21
DA:159,21
DA:160,21
DA:161,21
DA:162,21
DA:163,21
DA:164,21
DA:165,21
DA:166,21
DA:167,21
DA:168,21
DA:169,21
DA:170,21
DA:171,21
DA:172,21
DA:173,21
DA:174,21
DA:175,21
DA:176,21
DA:177,21
DA:178,21
DA:179,21
DA:180,21
DA:181,21
DA:182,21
DA:183,21
DA:184,21
DA:185,21
DA:186,21
DA:187,21
DA:188,21
DA:189,21
DA:190,21
DA:191,21
DA:192,21
DA:193,21
DA:194,112
DA:196,19
DA:197,19
DA:198,19
DA:199,19
DA:200,19
DA:201,19
DA:202,19
DA:203,19
DA:204,19
DA:206,19
DA:207,17
DA:208,17
DA:209,19
DA:210,19
DA:211,19
DA:212,19
DA:214,19
DA:215,19
DA:216,19
DA:217,19
DA:219,19
DA:220,19
DA:221,19
DA:222,19
DA:223,19
DA:225,19
DA:226,19
DA:227,19
DA:228,19
DA:230,19
DA:231,19
DA:232,19
DA:233,19
DA:236,19
DA:237,0
DA:238,19
DA:239,19
DA:240,0
DA:241,19
DA:242,19
DA:243,0
DA:244,19
DA:245,19
DA:246,0
DA:247,19
DA:248,19
DA:249,0
DA:250,19
DA:251,19
DA:252,19
DA:253,19
DA:254,19
DA:256,19
DA:258,84
DA:259,84
DA:260,84
DA:261,84
DA:262,84
DA:263,84
DA:264,84
DA:265,84
DA:266,84
DA:267,84
DA:268,84
DA:269,84
DA:270,84
DA:271,84
DA:273,152
DA:274,152
DA:275,152
DA:276,152
DA:277,152
DA:278,152
DA:279,11
DA:280,141
DA:281,140
DA:283,152
DA:285,752
DA:286,752
DA:287,752
DA:289,127
DA:290,127
DA:291,127
DA:293,410
DA:294,410
DA:295,410
DA:296,410
DA:304,1
DA:305,1
DA:306,1
DA:307,1
DA:308,1
DA:309,1
DA:310,1
DA:311,1
DA:312,1
DA:313,1
DA:314,1
DA:315,1
DA:316,1
DA:318,1
DA:320,1
DA:321,1
DA:322,1
DA:323,1
DA:324,1
DA:325,1
DA:326,1
DA:327,1
DA:330,1
DA:331,1
DA:332,1
DA:333,1
DA:334,1
DA:335,1
DA:336,1
DA:337,1
DA:338,1
DA:339,1
DA:340,1
DA:341,1
DA:342,1
DA:343,1
DA:344,1
DA:345,1
DA:347,1
DA:349,1
DA:350,1
DA:351,1
DA:352,1
DA:353,1
DA:356,1
DA:357,1
DA:358,1
DA:359,1
DA:360,1
DA:361,1
DA:362,1
DA:363,1
DA:364,1
DA:365,1
DA:366,1
DA:367,1
DA:368,1
DA:369,1
DA:370,1
DA:371,1
DA:372,1
DA:373,1
DA:374,1
DA:376,1
DA:378,1
DA:379,1
DA:380,1
DA:381,1
DA:384,1
DA:385,1
DA:386,1
DA:387,1
DA:388,1
DA:389,1
DA:390,1
DA:391,1
DA:392,1
DA:393,1
DA:394,1
DA:395,1
DA:396,1
DA:397,1
DA:398,1
DA:399,1
DA:400,1
DA:401,1
DA:402,1
DA:403,1
DA:404,1
DA:405,1
DA:407,1
DA:409,1
DA:410,1
DA:411,1
BRF:0
BRH:0
LF:361
LH:348
end_of_record
SF:C:\Users\randy\Git\qsoripper-adif-refresh\src\rust\qsoripper-core\src\ffi\dsp.rs
FN:11,_RNvNtNtCs5kss5fdZ6xS_14qsoripper_core3ffi3dsp11dsp_version
FN:23,_RNvNtNtCs5kss5fdZ6xS_14qsoripper_core3ffi3dsp14moving_average
FN:17,_RNvNtNtCs5kss5fdZ6xS_14qsoripper_core3ffi3dsp9hz_to_khz
FN:45,_RNvNtNtNtCs5kss5fdZ6xS_14qsoripper_core3ffi3dsp5testss_20moving_average_basic
FN:32,_RNvNtNtNtCs5kss5fdZ6xS_14qsoripper_core3ffi3dsp5testss_24version_returns_expected
FN:37,_RNvNtNtNtCs5kss5fdZ6xS_14qsoripper_core3ffi3dsp5testss_26hz_to_khz_rounds_correctly
FN:52,_RNvNtNtNtCs5kss5fdZ6xS_14qsoripper_core3ffi3dsp5testss_26moving_average_empty_slice
FN:11,_RNvNtNtCsgPbJLsevrBc_14qsoripper_core3ffi3dsp11dsp_version
FN:23,_RNvNtNtCsgPbJLsevrBc_14qsoripper_core3ffi3dsp14moving_average
FN:17,_RNvNtNtCsgPbJLsevrBc_14qsoripper_core3ffi3dsp9hz_to_khz
FNDA:1,_RNvNtNtCs5kss5fdZ6xS_14qsoripper_core3ffi3dsp11dsp_version
FNDA:2,_RNvNtNtCs5kss5fdZ6xS_14qsoripper_core3ffi3dsp14moving_average
FNDA:4,_RNvNtNtCs5kss5fdZ6xS_14qsoripper_core3ffi3dsp9hz_to_khz
FNDA:1,_RNvNtNtNtCs5kss5fdZ6xS_14qsoripper_core3ffi3dsp5testss_20moving_average_basic
FNDA:1,_RNvNtNtNtCs5kss5fdZ6xS_14qsoripper_core3ffi3dsp5testss_24version_returns_expected
FNDA:1,_RNvNtNtNtCs5kss5fdZ6xS_14qsoripper_core3ffi3dsp5testss_26hz_to_khz_rounds_correctly
FNDA:1,_RNvNtNtNtCs5kss5fdZ6xS_14qsoripper_core3ffi3dsp5testss_26moving_average_empty_slice
FNDA:1,_RNvNtNtCsgPbJLsevrBc_14qsoripper_core3ffi3dsp11dsp_version
FNDA:5,_RNvNtNtCsgPbJLsevrBc_14qsoripper_core3ffi3dsp14moving_average
FNDA:3,_RNvNtNtCsgPbJLsevrBc_14qsoripper_core3ffi3dsp9hz_to_khz
FNF:7
FNH:7
DA:11,2
DA:12,2
DA:13,2
DA:17,7
DA:18,7
DA:19,7
DA:23,7
DA:24,7
DA:25,7
DA:32,1
DA:33,1
DA:34,1
DA:37,1
DA:38,1
DA:39,1
DA:40,1
DA:41,1
DA:42,1
DA:45,1
DA:46,1
DA:47,1
DA:48,1
DA:49,1
DA:52,1
DA:53,1
DA:54,1
DA:55,1
BRF:0
BRH:0
LF:27
LH:27
end_of_record
SF:C:\Users\randy\Git\qsoripper-adif-refresh\src\rust\qsoripper-core\src\lookup\coordinator.rs
FN:309,_RNCNCNvMs0_NtNtCsgPbJLsevrBc_14qsoripper_core6lookup11coordinatorNtB9_17LookupCoordinator27run_provider_lookup_deduped00Bd_
FN:119,_RNCNvMs0_NtNtCsgPbJLsevrBc_14qsoripper_core6lookup11coordinatorNtB7_17LookupCoordinator13stream_lookup0Bb_
FN:185,_RNCNvMs0_NtNtCsgPbJLsevrBc_14qsoripper_core6lookup11coordinatorNtB7_17LookupCoordinator15get_cache_entry0Bb_
FN:293,_RNCNvMs0_NtNtCsgPbJLsevrBc_14qsoripper_core6lookup11coordinatorNtB7_17LookupCoordinator17store_cache_entry0Bb_
FN:166,_RNCNvMs0_NtNtCsgPbJLsevrBc_14qsoripper_core6lookup11coordinatorNtB7_17LookupCoordinator19get_cached_callsign0Bb_
FN:233,_RNCNvMs0_NtNtCsgPbJLsevrBc_14qsoripper_core6lookup11coordinatorNtB7_17LookupCoordinator25provider_result_to_lookup0Bb_
FN:300,_RNCNvMs0_NtNtCsgPbJLsevrBc_14qsoripper_core6lookup11coordinatorNtB7_17LookupCoordinator27run_provider_lookup_deduped0Bb_
FN:99,_RNCNvMs0_NtNtCsgPbJLsevrBc_14qsoripper_core6lookup11coordinatorNtB7_17LookupCoordinator6lookup0Bb_
FN:166,_RNCNvMs0_NtNtCs5kss5fdZ6xS_14qsoripper_core6lookup11coordinatorNtB7_17LookupCoordinator19get_cached_callsign0Bb_
FN:52,_RNvMNtNtCs5kss5fdZ6xS_14qsoripper_core6lookup11coordinatorNtB2_23LookupCoordinatorConfig12negative_ttl
FN:46,_RNvMNtNtCs5kss5fdZ6xS_14qsoripper_core6lookup11coordinatorNtB2_23LookupCoordinatorConfig12positive_ttl
FN:166,_RNvMs0_NtNtCs5kss5fdZ6xS_14qsoripper_core6lookup11coordinatorNtB5_17LookupCoordinator19get_cached_callsign
FN:58,_RNvXs_NtNtCs5kss5fdZ6xS_14qsoripper_core6lookup11coordinatorNtB4_23LookupCoordinatorConfigNtNtCs5cb5cxfFw7H_4core7default7Default7default
FN:37,_RNvMNtNtCs5kss5fdZ6xS_14qsoripper_core6lookup11coordinatorNtB2_23LookupCoordinatorConfig3new
FN:119,_RNvMs0_NtNtCs5kss5fdZ6xS_14qsoripper_core6lookup11coordinatorNtB5_17LookupCoordinator13stream_lookup
FN:185,_RNvMs0_NtNtCs5kss5fdZ6xS_14qsoripper_core6lookup11coordinatorNtB5_17LookupCoordinator15get_cache_entry
FN:293,_RNvMs0_NtNtCs5kss5fdZ6xS_14qsoripper_core6lookup11coordinatorNtB5_17LookupCoordinator17store_cache_entry
FN:200,_RNvMs0_NtNtCs5kss5fdZ6xS_14qsoripper_core6lookup11coordinatorNtB5_17LookupCoordinator21cache_entry_to_result
FN:228,_RNvMs0_NtNtCs5kss5fdZ6xS_14qsoripper_core6lookup11coordinatorNtB5_17LookupCoordinator25provider_result_to_lookup
FN:300,_RNvMs0_NtNtCs5kss5fdZ6xS_14qsoripper_core6lookup11coordinatorNtB5_17LookupCoordinator27run_provider_lookup_deduped
FN:89,_RNvMs0_NtNtCs5kss5fdZ6xS_14qsoripper_core6lookup11coordinatorNtB5_17LookupCoordinator3new
FN:99,_RNvMs0_NtNtCs5kss5fdZ6xS_14qsoripper_core6lookup11coordinatorNtB5_17LookupCoordinator6lookup
FN:193,_RNvMs0_NtNtCs5kss5fdZ6xS_14qsoripper_core6lookup11coordinatorNtB5_17LookupCoordinator7ttl_for
FN:189,_RNvMs0_NtNtCs5kss5fdZ6xS_14qsoripper_core6lookup11coordinatorNtB5_17LookupCoordinator8is_fresh
FN:326,_RNvNtNtCs5kss5fdZ6xS_14qsoripper_core6lookup11coordinator22duration_to_millis_u32
FN:424,_RNCNvNtNtNtCs5kss5fdZ6xS_14qsoripper_core6lookup11coordinator5testss_33skip_cache_forces_provider_lookup0B9_
FN:400,_RNCNvNtNtNtCs5kss5fdZ6xS_14qsoripper_core6lookup11coordinator5testss_39lookup_returns_cache_hit_on_second_call0B9_
FN:491,_RNCNvNtNtNtCs5kss5fdZ6xS_14qsoripper_core6lookup11coordinator5testss_51concurrent_identical_lookups_share_inflight_request0B9_
FN:452,_RNCNvNtNtNtCs5kss5fdZ6xS_14qsoripper_core6lookup11coordinator5testss_53stream_lookup_emits_loading_stale_and_refreshed_found0B9_
FN:309,_RNCNCNvMs0_NtNtCs5kss5fdZ6xS_14qsoripper_core6lookup11coordinatorNtB9_17LookupCoordinator27run_provider_lookup_deduped00Bd_
FN:119,_RNCNvMs0_NtNtCs5kss5fdZ6xS_14qsoripper_core6lookup11coordinatorNtB7_17LookupCoordinator13stream_lookup0Bb_
FN:185,_RNCNvMs0_NtNtCs5kss5fdZ6xS_14qsoripper_core6lookup11coordinatorNtB7_17LookupCoordinator15get_cache_entry0Bb_
FN:293,_RNCNvMs0_NtNtCs5kss5fdZ6xS_14qsoripper_core6lookup11coordinatorNtB7_17LookupCoordinator17store_cache_entry0Bb_
FN:233,_RNCNvMs0_NtNtCs5kss5fdZ6xS_14qsoripper_core6lookup11coordinatorNtB7_17LookupCoordinator25provider_result_to_lookup0Bb_
FN:300,_RNCNvMs0_NtNtCs5kss5fdZ6xS_14qsoripper_core6lookup11coordinatorNtB7_17LookupCoordinator27run_provider_lookup_deduped0Bb_
FN:99,_RNCNvMs0_NtNtCs5kss5fdZ6xS_14qsoripper_core6lookup11coordinatorNtB7_17LookupCoordinator6lookup0Bb_
FN:366,_RNvMNtNtNtCs5kss5fdZ6xS_14qsoripper_core6lookup11coordinator5testsNtB2_13QueueProvider10call_count
FN:358,_RNvMNtNtNtCs5kss5fdZ6xS_14qsoripper_core6lookup11coordinator5testsNtB2_13QueueProvider3new
FN:389,_RNvNtNtNtCs5kss5fdZ6xS_14qsoripper_core6lookup11coordinator5tests12found_record
FN:424,_RNvNtNtNtCs5kss5fdZ6xS_14qsoripper_core6lookup11coordinator5testss_33skip_cache_forces_provider_lookup
FN:400,_RNvNtNtNtCs5kss5fdZ6xS_14qsoripper_core6lookup11coordinator5testss_39lookup_returns_cache_hit_on_second_call
FN:491,_RNvNtNtNtCs5kss5fdZ6xS_14qsoripper_core6lookup11coordinator5testss_51concurrent_identical_lookups_share_inflight_request
FN:452,_RNvNtNtNtCs5kss5fdZ6xS_14qsoripper_core6lookup11coordinator5testss_53stream_lookup_emits_loading_stale_and_refreshed_found
FN:376,_RNvXs1_NtNtNtCs5kss5fdZ6xS_14qsoripper_core6lookup11coordinator5testsNtB5_13QueueProviderNtNtB9_8provider16CallsignProvider15lookup_callsign
FN:309,_RNCNCNvMs0_NtNtCsgPbJLsevrBc_14qsoripper_core6lookup11coordinatorNtB9_17LookupCoordinator27run_provider_lookup_deduped00CsujLUsjorcV_16qsoripper_server
FN:119,_RNCNvMs0_NtNtCsgPbJLsevrBc_14qsoripper_core6lookup11coordinatorNtB7_17LookupCoordinator13stream_lookup0CsujLUsjorcV_16qsoripper_server
FN:185,_RNCNvMs0_NtNtCsgPbJLsevrBc_14qsoripper_core6lookup11coordinatorNtB7_17LookupCoordinator15get_cache_entry0CsujLUsjorcV_16qsoripper_server
FN:293,_RNCNvMs0_NtNtCsgPbJLsevrBc_14qsoripper_core6lookup11coordinatorNtB7_17LookupCoordinator17store_cache_entry0CsujLUsjorcV_16qsoripper_server
FN:166,_RNCNvMs0_NtNtCsgPbJLsevrBc_14qsoripper_core6lookup11coordinatorNtB7_17LookupCoordinator19get_cached_callsign0CsujLUsjorcV_16qsoripper_server
FN:233,_RNCNvMs0_NtNtCsgPbJLsevrBc_14qsoripper_core6lookup11coordinatorNtB7_17LookupCoordinator25provider_result_to_lookup0CsujLUsjorcV_16qsoripper_server
FN:300,_RNCNvMs0_NtNtCsgPbJLsevrBc_14qsoripper_core6lookup11coordinatorNtB7_17LookupCoordinator27run_provider_lookup_deduped0CsujLUsjorcV_16qsoripper_server
FN:99,_RNCNvMs0_NtNtCsgPbJLsevrBc_14qsoripper_core6lookup11coordinatorNtB7_17LookupCoordinator6lookup0CsujLUsjorcV_16qsoripper_server
FN:52,_RNvMNtNtCsgPbJLsevrBc_14qsoripper_core6lookup11coordinatorNtB2_23LookupCoordinatorConfig12negative_ttl
FN:46,_RNvMNtNtCsgPbJLsevrBc_14qsoripper_core6lookup11coordinatorNtB2_23LookupCoordinatorConfig12positive_ttl
FN:37,_RNvMNtNtCsgPbJLsevrBc_14qsoripper_core6lookup11coordinatorNtB2_23LookupCoordinatorConfig3new
FN:119,_RNvMs0_NtNtCsgPbJLsevrBc_14qsoripper_core6lookup11coordinatorNtB5_17LookupCoordinator13stream_lookup
FN:185,_RNvMs0_NtNtCsgPbJLsevrBc_14qsoripper_core6lookup11coordinatorNtB5_17LookupCoordinator15get_cache_entry
FN:293,_RNvMs0_NtNtCsgPbJLsevrBc_14qsoripper_core6lookup11coordinatorNtB5_17LookupCoordinator17store_cache_entry
FN:166,_RNvMs0_NtNtCsgPbJLsevrBc_14qsoripper_core6lookup11coordinatorNtB5_17LookupCoordinator19get_cached_callsign
FN:200,_RNvMs0_NtNtCsgPbJLsevrBc_14qsoripper_core6lookup11coordinatorNtB5_17LookupCoordinator21cache_entry_to_result
FN:228,_RNvMs0_NtNtCsgPbJLsevrBc_14qsoripper_core6lookup11coordinatorNtB5_17LookupCoordinator25provider_result_to_lookup
FN:300,_RNvMs0_NtNtCsgPbJLsevrBc_14qsoripper_core6lookup11coordinatorNtB5_17LookupCoordinator27run_provider_lookup_deduped
FN:89,_RNvMs0_NtNtCsgPbJLsevrBc_14qsoripper_core6lookup11coordinatorNtB5_17LookupCoordinator3new
FN:99,_RNvMs0_NtNtCsgPbJLsevrBc_14qsoripper_core6lookup11coordinatorNtB5_17LookupCoordinator6lookup
FN:193,_RNvMs0_NtNtCsgPbJLsevrBc_14qsoripper_core6lookup11coordinatorNtB5_17LookupCoordinator7ttl_for
FN:189,_RNvMs0_NtNtCsgPbJLsevrBc_14qsoripper_core6lookup11coordinatorNtB5_17LookupCoordinator8is_fresh
FN:326,_RNvNtNtCsgPbJLsevrBc_14qsoripper_core6lookup11coordinator22duration_to_millis_u32
FN:58,_RNvXs_NtNtCsgPbJLsevrBc_14qsoripper_core6lookup11coordinatorNtB4_23LookupCoordinatorConfigNtNtCs5cb5cxfFw7H_4core7default7Default7default
FN:309,_RNCNCNvMs0_NtNtCsgPbJLsevrBc_14qsoripper_core6lookup11coordinatorNtB9_17LookupCoordinator27run_provider_lookup_deduped00Cske1tuL0gxsN_11stress_test
FN:119,_RNCNvMs0_NtNtCsgPbJLsevrBc_14qsoripper_core6lookup11coordinatorNtB7_17LookupCoordinator13stream_lookup0Cske1tuL0gxsN_11stress_test
FN:185,_RNCNvMs0_NtNtCsgPbJLsevrBc_14qsoripper_core6lookup11coordinatorNtB7_17LookupCoordinator15get_cache_entry0Cske1tuL0gxsN_11stress_test
FN:293,_RNCNvMs0_NtNtCsgPbJLsevrBc_14qsoripper_core6lookup11coordinatorNtB7_17LookupCoordinator17store_cache_entry0Cske1tuL0gxsN_11stress_test
FN:166,_RNCNvMs0_NtNtCsgPbJLsevrBc_14qsoripper_core6lookup11coordinatorNtB7_17LookupCoordinator19get_cached_callsign0Cske1tuL0gxsN_11stress_test
FN:233,_RNCNvMs0_NtNtCsgPbJLsevrBc_14qsoripper_core6lookup11coordinatorNtB7_17LookupCoordinator25provider_result_to_lookup0Cske1tuL0gxsN_11stress_test
FN:300,_RNCNvMs0_NtNtCsgPbJLsevrBc_14qsoripper_core6lookup11coordinatorNtB7_17LookupCoordinator27run_provider_lookup_deduped0Cske1tuL0gxsN_11stress_test
FN:99,_RNCNvMs0_NtNtCsgPbJLsevrBc_14qsoripper_core6lookup11coordinatorNtB7_17LookupCoordinator6lookup0Cske1tuL0gxsN_11stress_test
FNDA:0,_RNCNCNvMs0_NtNtCsgPbJLsevrBc_14qsoripper_core6lookup11coordinatorNtB9_17LookupCoordinator27run_provider_lookup_deduped00Bd_
FNDA:0,_RNCNvMs0_NtNtCsgPbJLsevrBc_14qsoripper_core6lookup11coordinatorNtB7_17LookupCoordinator13stream_lookup0Bb_
FNDA:0,_RNCNvMs0_NtNtCsgPbJLsevrBc_14qsoripper_core6lookup11coordinatorNtB7_17LookupCoordinator15get_cache_entry0Bb_
FNDA:0,_RNCNvMs0_NtNtCsgPbJLsevrBc_14qsoripper_core6lookup11coordinatorNtB7_17LookupCoordinator17store_cache_entry0Bb_
FNDA:0,_RNCNvMs0_NtNtCsgPbJLsevrBc_14qsoripper_core6lookup11coordinatorNtB7_17LookupCoordinator19get_cached_callsign0Bb_
FNDA:0,_RNCNvMs0_NtNtCsgPbJLsevrBc_14qsoripper_core6lookup11coordinatorNtB7_17LookupCoordinator25provider_result_to_lookup0Bb_
FNDA:0,_RNCNvMs0_NtNtCsgPbJLsevrBc_14qsoripper_core6lookup11coordinatorNtB7_17LookupCoordinator27run_provider_lookup_deduped0Bb_
FNDA:0,_RNCNvMs0_NtNtCsgPbJLsevrBc_14qsoripper_core6lookup11coordinatorNtB7_17LookupCoordinator6lookup0Bb_
FNDA:0,_RNCNvMs0_NtNtCs5kss5fdZ6xS_14qsoripper_core6lookup11coordinatorNtB7_17LookupCoordinator19get_cached_callsign0Bb_
FNDA:0,_RNvMNtNtCs5kss5fdZ6xS_14qsoripper_core6lookup11coordinatorNtB2_23LookupCoordinatorConfig12negative_ttl
FNDA:0,_RNvMNtNtCs5kss5fdZ6xS_14qsoripper_core6lookup11coordinatorNtB2_23LookupCoordinatorConfig12positive_ttl
FNDA:0,_RNvMs0_NtNtCs5kss5fdZ6xS_14qsoripper_core6lookup11coordinatorNtB5_17LookupCoordinator19get_cached_callsign
FNDA:0,_RNvXs_NtNtCs5kss5fdZ6xS_14qsoripper_core6lookup11coordinatorNtB4_23LookupCoordinatorConfigNtNtCs5cb5cxfFw7H_4core7default7Default7default
FNDA:4,_RNvMNtNtCs5kss5fdZ6xS_14qsoripper_core6lookup11coordinatorNtB2_23LookupCoordinatorConfig3new
FNDA:1,_RNvMs0_NtNtCs5kss5fdZ6xS_14qsoripper_core6lookup11coordinatorNtB5_17LookupCoordinator13stream_lookup
FNDA:5,_RNvMs0_NtNtCs5kss5fdZ6xS_14qsoripper_core6lookup11coordinatorNtB5_17LookupCoordinator15get_cache_entry
FNDA:7,_RNvMs0_NtNtCs5kss5fdZ6xS_14qsoripper_core6lookup11coordinatorNtB5_17LookupCoordinator17store_cache_entry
FNDA:2,_RNvMs0_NtNtCs5kss5fdZ6xS_14qsoripper_core6lookup11coordinatorNtB5_17LookupCoordinator21cache_entry_to_result
FNDA:7,_RNvMs0_NtNtCs5kss5fdZ6xS_14qsoripper_core6lookup11coordinatorNtB5_17LookupCoordinator25provider_result_to_lookup
FNDA:7,_RNvMs0_NtNtCs5kss5fdZ6xS_14qsoripper_core6lookup11coordinatorNtB5_17LookupCoordinator27run_provider_lookup_deduped
FNDA:4,_RNvMs0_NtNtCs5kss5fdZ6xS_14qsoripper_core6lookup11coordinatorNtB5_17LookupCoordinator3new
FNDA:7,_RNvMs0_NtNtCs5kss5fdZ6xS_14qsoripper_core6lookup11coordinatorNtB5_17LookupCoordinator6lookup
FNDA:2,_RNvMs0_NtNtCs5kss5fdZ6xS_14qsoripper_core6lookup11coordinatorNtB5_17LookupCoordinator7ttl_for
FNDA:2,_RNvMs0_NtNtCs5kss5fdZ6xS_14qsoripper_core6lookup11coordinatorNtB5_17LookupCoordinator8is_fresh
FNDA:7,_RNvNtNtCs5kss5fdZ6xS_14qsoripper_core6lookup11coordinator22duration_to_millis_u32
FNDA:1,_RNCNvNtNtNtCs5kss5fdZ6xS_14qsoripper_core6lookup11coordinator5testss_33skip_cache_forces_provider_lookup0B9_
FNDA:1,_RNCNvNtNtNtCs5kss5fdZ6xS_14qsoripper_core6lookup11coordinator5testss_39lookup_returns_cache_hit_on_second_call0B9_
FNDA:1,_RNCNvNtNtNtCs5kss5fdZ6xS_14qsoripper_core6lookup11coordinator5testss_51concurrent_identical_lookups_share_inflight_request0B9_
FNDA:1,_RNCNvNtNtNtCs5kss5fdZ6xS_14qsoripper_core6lookup11coordinator5testss_53stream_lookup_emits_loading_stale_and_refreshed_found0B9_
FNDA:6,_RNCNCNvMs0_NtNtCs5kss5fdZ6xS_14qsoripper_core6lookup11coordinatorNtB9_17LookupCoordinator27run_provider_lookup_deduped00Bd_
FNDA:1,_RNCNvMs0_NtNtCs5kss5fdZ6xS_14qsoripper_core6lookup11coordinatorNtB7_17LookupCoordinator13stream_lookup0Bb_
FNDA:5,_RNCNvMs0_NtNtCs5kss5fdZ6xS_14qsoripper_core6lookup11coordinatorNtB7_17LookupCoordinator15get_cache_entry0Bb_
FNDA:7,_RNCNvMs0_NtNtCs5kss5fdZ6xS_14qsoripper_core6lookup11coordinatorNtB7_17LookupCoordinator17store_cache_entry0Bb_
FNDA:7,_RNCNvMs0_NtNtCs5kss5fdZ6xS_14qsoripper_core6lookup11coordinatorNtB7_17LookupCoordinator25provider_result_to_lookup0Bb_
FNDA:7,_RNCNvMs0_NtNtCs5kss5fdZ6xS_14qsoripper_core6lookup11coordinatorNtB7_17LookupCoordinator27run_provider_lookup_deduped0Bb_
FNDA:7,_RNCNvMs0_NtNtCs5kss5fdZ6xS_14qsoripper_core6lookup11coordinatorNtB7_17LookupCoordinator6lookup0Bb_
FNDA:4,_RNvMNtNtNtCs5kss5fdZ6xS_14qsoripper_core6lookup11coordinator5testsNtB2_13QueueProvider10call_count
FNDA:4,_RNvMNtNtNtCs5kss5fdZ6xS_14qsoripper_core6lookup11coordinator5testsNtB2_13QueueProvider3new
FNDA:6,_RNvNtNtNtCs5kss5fdZ6xS_14qsoripper_core6lookup11coordinator5tests12found_record
FNDA:1,_RNvNtNtNtCs5kss5fdZ6xS_14qsoripper_core6lookup11coordinator5testss_33skip_cache_forces_provider_lookup
FNDA:1,_RNvNtNtNtCs5kss5fdZ6xS_14qsoripper_core6lookup11coordinator5testss_39lookup_returns_cache_hit_on_second_call
FNDA:1,_RNvNtNtNtCs5kss5fdZ6xS_14qsoripper_core6lookup11coordinator5testss_51concurrent_identical_lookups_share_inflight_request
FNDA:1,_RNvNtNtNtCs5kss5fdZ6xS_14qsoripper_core6lookup11coordinator5testss_53stream_lookup_emits_loading_stale_and_refreshed_found
FNDA:6,_RNvXs1_NtNtNtCs5kss5fdZ6xS_14qsoripper_core6lookup11coordinator5testsNtB5_13QueueProviderNtNtB9_8provider16CallsignProvider15lookup_callsign
FNDA:2,_RNCNCNvMs0_NtNtCsgPbJLsevrBc_14qsoripper_core6lookup11coordinatorNtB9_17LookupCoordinator27run_provider_lookup_deduped00CsujLUsjorcV_16qsoripper_server
FNDA:1,_RNCNvMs0_NtNtCsgPbJLsevrBc_14qsoripper_core6lookup11coordinatorNtB7_17LookupCoordinator13stream_lookup0CsujLUsjorcV_16qsoripper_server
FNDA:3,_RNCNvMs0_NtNtCsgPbJLsevrBc_14qsoripper_core6lookup11coordinatorNtB7_17LookupCoordinator15get_cache_entry0CsujLUsjorcV_16qsoripper_server
FNDA:0,_RNCNvMs0_NtNtCsgPbJLsevrBc_14qsoripper_core6lookup11coordinatorNtB7_17LookupCoordinator17store_cache_entry0CsujLUsjorcV_16qsoripper_server
FNDA:1,_RNCNvMs0_NtNtCsgPbJLsevrBc_14qsoripper_core6lookup11coordinatorNtB7_17LookupCoordinator19get_cached_callsign0CsujLUsjorcV_16qsoripper_server
FNDA:2,_RNCNvMs0_NtNtCsgPbJLsevrBc_14qsoripper_core6lookup11coordinatorNtB7_17LookupCoordinator25provider_result_to_lookup0CsujLUsjorcV_16qsoripper_server
FNDA:2,_RNCNvMs0_NtNtCsgPbJLsevrBc_14qsoripper_core6lookup11coordinatorNtB7_17LookupCoordinator27run_provider_lookup_deduped0CsujLUsjorcV_16qsoripper_server
FNDA:1,_RNCNvMs0_NtNtCsgPbJLsevrBc_14qsoripper_core6lookup11coordinatorNtB7_17LookupCoordinator6lookup0CsujLUsjorcV_16qsoripper_server
FNDA:0,_RNvMNtNtCsgPbJLsevrBc_14qsoripper_core6lookup11coordinatorNtB2_23LookupCoordinatorConfig12negative_ttl
FNDA:0,_RNvMNtNtCsgPbJLsevrBc_14qsoripper_core6lookup11coordinatorNtB2_23LookupCoordinatorConfig12positive_ttl
FNDA:1,_RNvMNtNtCsgPbJLsevrBc_14qsoripper_core6lookup11coordinatorNtB2_23LookupCoordinatorConfig3new
FNDA:271,_RNvMs0_NtNtCsgPbJLsevrBc_14qsoripper_core6lookup11coordinatorNtB5_17LookupCoordinator13stream_lookup
FNDA:813,_RNvMs0_NtNtCsgPbJLsevrBc_14qsoripper_core6lookup11coordinatorNtB5_17LookupCoordinator15get_cache_entry
FNDA:577,_RNvMs0_NtNtCsgPbJLsevrBc_14qsoripper_core6lookup11coordinatorNtB5_17LookupCoordinator17store_cache_entry
FNDA:271,_RNvMs0_NtNtCsgPbJLsevrBc_14qsoripper_core6lookup11coordinatorNtB5_17LookupCoordinator19get_cached_callsign
FNDA:245,_RNvMs0_NtNtCsgPbJLsevrBc_14qsoripper_core6lookup11coordinatorNtB5_17LookupCoordinator21cache_entry_to_result
FNDA:735,_RNvMs0_NtNtCsgPbJLsevrBc_14qsoripper_core6lookup11coordinatorNtB5_17LookupCoordinator25provider_result_to_lookup
FNDA:735,_RNvMs0_NtNtCsgPbJLsevrBc_14qsoripper_core6lookup11coordinatorNtB5_17LookupCoordinator27run_provider_lookup_deduped
FNDA:54,_RNvMs0_NtNtCsgPbJLsevrBc_14qsoripper_core6lookup11coordinatorNtB5_17LookupCoordinator3new
FNDA:541,_RNvMs0_NtNtCsgPbJLsevrBc_14qsoripper_core6lookup11coordinatorNtB5_17LookupCoordinator6lookup
FNDA:530,_RNvMs0_NtNtCsgPbJLsevrBc_14qsoripper_core6lookup11coordinatorNtB5_17LookupCoordinator7ttl_for
FNDA:530,_RNvMs0_NtNtCsgPbJLsevrBc_14qsoripper_core6lookup11coordinatorNtB5_17LookupCoordinator8is_fresh
FNDA:735,_RNvNtNtCsgPbJLsevrBc_14qsoripper_core6lookup11coordinator22duration_to_millis_u32
FNDA:53,_RNvXs_NtNtCsgPbJLsevrBc_14qsoripper_core6lookup11coordinatorNtB4_23LookupCoordinatorConfigNtNtCs5cb5cxfFw7H_4core7default7Default7default
FNDA:133,_RNCNCNvMs0_NtNtCsgPbJLsevrBc_14qsoripper_core6lookup11coordinatorNtB9_17LookupCoordinator27run_provider_lookup_deduped00Cske1tuL0gxsN_11stress_test
FNDA:270,_RNCNvMs0_NtNtCsgPbJLsevrBc_14qsoripper_core6lookup11coordinatorNtB7_17LookupCoordinator13stream_lookup0Cske1tuL0gxsN_11stress_test
FNDA:810,_RNCNvMs0_NtNtCsgPbJLsevrBc_14qsoripper_core6lookup11coordinatorNtB7_17LookupCoordinator15get_cache_entry0Cske1tuL0gxsN_11stress_test
FNDA:577,_RNCNvMs0_NtNtCsgPbJLsevrBc_14qsoripper_core6lookup11coordinatorNtB7_17LookupCoordinator17store_cache_entry0Cske1tuL0gxsN_11stress_test
FNDA:270,_RNCNvMs0_NtNtCsgPbJLsevrBc_14qsoripper_core6lookup11coordinatorNtB7_17LookupCoordinator19get_cached_callsign0Cske1tuL0gxsN_11stress_test
FNDA:733,_RNCNvMs0_NtNtCsgPbJLsevrBc_14qsoripper_core6lookup11coordinatorNtB7_17LookupCoordinator25provider_result_to_lookup0Cske1tuL0gxsN_11stress_test
FNDA:733,_RNCNvMs0_NtNtCsgPbJLsevrBc_14qsoripper_core6lookup11coordinatorNtB7_17LookupCoordinator27run_provider_lookup_deduped0Cske1tuL0gxsN_11stress_test
FNDA:540,_RNCNvMs0_NtNtCsgPbJLsevrBc_14qsoripper_core6lookup11coordinatorNtB7_17LookupCoordinator6lookup0Cske1tuL0gxsN_11stress_test
FNF:36
FNH:34
DA:37,5
DA:38,5
DA:39,5
DA:40,5
DA:41,5
DA:42,5
DA:46,0
DA:47,0
DA:48,0
DA:52,0
DA:53,0
DA:54,0
DA:58,53
DA:59,53
DA:60,53
DA:61,53
DA:62,53
DA:63,53
DA:89,58
DA:90,58
DA:91,58
DA:92,58
DA:93,58
DA:94,58
DA:95,58
DA:96,58
DA:99,548
DA:100,548
DA:101,548
DA:102,275
DA:103,2
DA:104,2
DA:105,0
DA:106,273
DA:107,273
DA:109,546
DA:110,546
DA:111,546
DA:112,546
DA:113,546
DA:114,548
DA:119,272
DA:120,272
DA:121,272
DA:122,272
DA:123,272
DA:124,272
DA:125,272
DA:126,272
DA:127,272
DA:128,272
DA:129,272
DA:131,272
DA:132,272
DA:133,260
DA:134,76
DA:135,76
DA:136,76
DA:137,76
DA:140,76
DA:141,184
DA:143,184
DA:144,69
DA:145,69
DA:146,69
DA:147,69
DA:148,69
DA:149,69
DA:150,115
DA:151,12
DA:152,0
DA:154,196
DA:155,196
DA:156,196
DA:157,196
DA:158,196
DA:159,196
DA:162,196
DA:163,272
DA:166,271
DA:167,271
DA:168,271
DA:169,270
DA:170,100
DA:171,170
DA:172,1
DA:174,171
DA:175,171
DA:176,171
DA:177,171
DA:178,171
DA:179,171
DA:180,171
DA:181,171
DA:182,171
DA:183,271
DA:185,818
DA:186,818
DA:187,818
DA:189,532
DA:190,532
DA:191,532
DA:193,532
DA:194,532
DA:195,157
DA:196,375
DA:198,532
DA:200,247
DA:201,247
DA:202,247
DA:203,247
DA:204,247
DA:205,247
DA:206,247
DA:207,101
DA:208,101
DA:209,101
DA:210,101
DA:211,101
DA:212,101
DA:213,101
DA:214,101
DA:215,101
DA:216,146
DA:217,146
DA:218,146
DA:219,146
DA:220,146
DA:221,146
DA:222,146
DA:223,146
DA:224,146
DA:226,247
DA:228,742
DA:229,742
DA:230,742
DA:231,742
DA:232,742
DA:233,742
DA:234,584
DA:236,176
DA:237,176
DA:239,176
DA:240,176
DA:241,176
DA:242,176
DA:243,176
DA:244,176
DA:245,176
DA:246,176
DA:248,176
DA:249,176
DA:250,176
DA:251,176
DA:252,176
DA:253,176
DA:254,176
DA:255,176
DA:256,176
DA:260,408
DA:262,408
DA:263,408
DA:264,408
DA:265,408
DA:266,408
DA:267,408
DA:268,408
DA:269,408
DA:271,408
DA:272,408
DA:273,408
DA:274,408
DA:275,408
DA:276,408
DA:277,408
DA:278,408
DA:279,408
DA:281,158
DA:282,158
DA:283,158
DA:284,158
DA:285,158
DA:286,158
DA:287,158
DA:288,158
DA:289,158
DA:291,742
DA:293,584
DA:294,584
DA:295,584
DA:296,584
DA:297,584
DA:298,584
DA:300,742
DA:301,742
DA:302,742
DA:303,742
DA:304,742
DA:305,601
DA:307,141
DA:308,141
DA:309,141
DA:310,141
DA:311,141
DA:312,141
DA:313,141
DA:317,742
DA:318,742
DA:319,141
DA:320,601
DA:322,742
DA:323,742
DA:326,742
DA:327,742
DA:328,742
DA:329,0
DA:331,742
DA:358,4
DA:359,4
DA:360,4
DA:361,4
DA:362,4
DA:363,4
DA:364,4
DA:366,4
DA:367,4
DA:368,4
DA:376,6
DA:386,6
DA:389,6
DA:390,6
DA:391,6
DA:392,6
DA:393,6
DA:394,6
DA:395,6
DA:396,6
DA:397,6
DA:400,1
DA:401,1
DA:402,1
DA:403,1
DA:404,1
DA:405,1
DA:408,1
DA:409,1
DA:410,1
DA:413,1
DA:414,1
DA:416,1
DA:417,1
DA:418,1
DA:419,1
DA:420,1
DA:421,1
DA:424,1
DA:425,1
DA:426,1
DA:427,1
DA:428,1
DA:429,1
DA:430,1
DA:431,1
DA:432,1
DA:433,1
DA:434,1
DA:438,1
DA:439,1
DA:440,1
DA:443,1
DA:444,1
DA:446,1
DA:447,1
DA:448,1
DA:449,1
DA:452,1
DA:453,1
DA:454,1
DA:455,1
DA:456,1
DA:457,1
DA:458,1
DA:459,1
DA:460,1
DA:461,1
DA:462,1
DA:466,1
DA:467,1
DA:468,1
DA:471,1
DA:472,1
DA:473,1
DA:475,1
DA:476,1
DA:477,1
DA:478,1
DA:479,1
DA:480,1
DA:481,1
DA:483,1
DA:484,1
DA:485,1
DA:486,1
DA:487,1
DA:488,1
DA:491,1
DA:492,1
DA:493,1
DA:494,1
DA:495,1
DA:496,1
DA:497,1
DA:499,1
DA:500,1
DA:501,1
DA:504,1
DA:505,1
DA:506,1
DA:507,1
DA:508,1
DA:511,1
DA:512,1
DA:513,1
DA:514,1
BRF:0
BRH:0
LF:340
LH:330
end_of_record
SF:C:\Users\randy\Git\qsoripper-adif-refresh\src\rust\qsoripper-core\src\lookup\provider.rs
FN:133,_RINvMs_NtNtCsgPbJLsevrBc_14qsoripper_core6lookup8providerNtB5_19ProviderLookupError12rate_limitedNtNtCs2ocB3yIIgEv_5alloc6string6StringEB9_
FN:78,_RINvMs_NtNtCsgPbJLsevrBc_14qsoripper_core6lookup8providerNtB5_19ProviderLookupError13configurationNtNtCs2ocB3yIIgEv_5alloc6string6StringEB9_
FN:84,_RINvMs_NtNtCsgPbJLsevrBc_14qsoripper_core6lookup8providerNtB5_19ProviderLookupError14authenticationNtNtCs2ocB3yIIgEv_5alloc6string6StringEB9_
FN:144,_RINvMs_NtNtCsgPbJLsevrBc_14qsoripper_core6lookup8providerNtB5_19ProviderLookupError3newNtNtCs2ocB3yIIgEv_5alloc6string6StringEB9_
FN:123,_RINvMs_NtNtCsgPbJLsevrBc_14qsoripper_core6lookup8providerNtB5_19ProviderLookupError5parseNtNtCs2ocB3yIIgEv_5alloc6string6StringEB9_
FN:97,_RINvMs_NtNtCsgPbJLsevrBc_14qsoripper_core6lookup8providerNtB5_19ProviderLookupError7sessionNtNtCs2ocB3yIIgEv_5alloc6string6StringEB9_
FN:110,_RINvMs_NtNtCsgPbJLsevrBc_14qsoripper_core6lookup8providerNtB5_19ProviderLookupError9transportNtNtCs2ocB3yIIgEv_5alloc6string6StringEB9_
FN:24,_RNvMNtNtCsgPbJLsevrBc_14qsoripper_core6lookup8providerNtB2_14ProviderLookup5found
FN:33,_RNvMNtNtCsgPbJLsevrBc_14qsoripper_core6lookup8providerNtB2_14ProviderLookup9not_found
FN:172,_RNvMs_NtNtCsgPbJLsevrBc_14qsoripper_core6lookup8providerNtB4_19ProviderLookupError12is_retryable
FN:158,_RNvMs_NtNtCsgPbJLsevrBc_14qsoripper_core6lookup8providerNtB4_19ProviderLookupError20debug_http_exchanges
FN:164,_RNvMs_NtNtCsgPbJLsevrBc_14qsoripper_core6lookup8providerNtB4_19ProviderLookupError31with_prior_debug_http_exchanges
FN:181,_RNvXs0_NtNtCsgPbJLsevrBc_14qsoripper_core6lookup8providerNtB5_19ProviderLookupErrorNtNtCs5cb5cxfFw7H_4core3fmt7Display3fmt
FN:221,_RNvXsh_NtNtCsgPbJLsevrBc_14qsoripper_core6lookup8providerNtB5_24DisabledCallsignProviderNtB5_16CallsignProvider15lookup_callsign
FN:209,_RINvMs2_NtNtCsgPbJLsevrBc_14qsoripper_core6lookup8providerNtB6_24DisabledCallsignProvider3newpEBa_
FN:209,_RINvMs2_NtNtCs5kss5fdZ6xS_14qsoripper_core6lookup8providerNtB6_24DisabledCallsignProvider3newReEBa_
FN:133,_RINvMs_NtNtCs5kss5fdZ6xS_14qsoripper_core6lookup8providerNtB5_19ProviderLookupError12rate_limitedNtNtCs2ocB3yIIgEv_5alloc6string6StringEB9_
FN:133,_RINvMs_NtNtCs5kss5fdZ6xS_14qsoripper_core6lookup8providerNtB5_19ProviderLookupError12rate_limitedReEB9_
FN:78,_RINvMs_NtNtCs5kss5fdZ6xS_14qsoripper_core6lookup8providerNtB5_19ProviderLookupError13configurationNtNtCs2ocB3yIIgEv_5alloc6string6StringEB9_
FN:78,_RINvMs_NtNtCs5kss5fdZ6xS_14qsoripper_core6lookup8providerNtB5_19ProviderLookupError13configurationReEB9_
FN:84,_RINvMs_NtNtCs5kss5fdZ6xS_14qsoripper_core6lookup8providerNtB5_19ProviderLookupError14authenticationNtNtCs2ocB3yIIgEv_5alloc6string6StringEB9_
FN:84,_RINvMs_NtNtCs5kss5fdZ6xS_14qsoripper_core6lookup8providerNtB5_19ProviderLookupError14authenticationReEB9_
FN:144,_RINvMs_NtNtCs5kss5fdZ6xS_14qsoripper_core6lookup8providerNtB5_19ProviderLookupError3newNtNtCs2ocB3yIIgEv_5alloc6string6StringEB9_
FN:144,_RINvMs_NtNtCs5kss5fdZ6xS_14qsoripper_core6lookup8providerNtB5_19ProviderLookupError3newReEB9_
FN:123,_RINvMs_NtNtCs5kss5fdZ6xS_14qsoripper_core6lookup8providerNtB5_19ProviderLookupError5parseNtNtCs2ocB3yIIgEv_5alloc6string6StringEB9_
FN:123,_RINvMs_NtNtCs5kss5fdZ6xS_14qsoripper_core6lookup8providerNtB5_19ProviderLookupError5parseReEB9_
FN:97,_RINvMs_NtNtCs5kss5fdZ6xS_14qsoripper_core6lookup8providerNtB5_19ProviderLookupError7sessionNtNtCs2ocB3yIIgEv_5alloc6string6StringEB9_
FN:97,_RINvMs_NtNtCs5kss5fdZ6xS_14qsoripper_core6lookup8providerNtB5_19ProviderLookupError7sessionReEB9_
FN:110,_RINvMs_NtNtCs5kss5fdZ6xS_14qsoripper_core6lookup8providerNtB5_19ProviderLookupError9transportNtNtCs2ocB3yIIgEv_5alloc6string6StringEB9_
FN:110,_RINvMs_NtNtCs5kss5fdZ6xS_14qsoripper_core6lookup8providerNtB5_19ProviderLookupError9transportReEB9_
FN:242,_RNCNvNtNtNtCs5kss5fdZ6xS_14qsoripper_core6lookup8provider5testss_45disabled_provider_returns_configuration_error0B9_
FN:24,_RNvMNtNtCs5kss5fdZ6xS_14qsoripper_core6lookup8providerNtB2_14ProviderLookup5found
FN:33,_RNvMNtNtCs5kss5fdZ6xS_14qsoripper_core6lookup8providerNtB2_14ProviderLookup9not_found
FN:172,_RNvMs_NtNtCs5kss5fdZ6xS_14qsoripper_core6lookup8providerNtB4_19ProviderLookupError12is_retryable
FN:158,_RNvMs_NtNtCs5kss5fdZ6xS_14qsoripper_core6lookup8providerNtB4_19ProviderLookupError20debug_http_exchanges
FN:164,_RNvMs_NtNtCs5kss5fdZ6xS_14qsoripper_core6lookup8providerNtB4_19ProviderLookupError31with_prior_debug_http_exchanges
FN:181,_RNvXs0_NtNtCs5kss5fdZ6xS_14qsoripper_core6lookup8providerNtB5_19ProviderLookupErrorNtNtCs5cb5cxfFw7H_4core3fmt7Display3fmt
FN:221,_RNvXsh_NtNtCs5kss5fdZ6xS_14qsoripper_core6lookup8providerNtB5_24DisabledCallsignProviderNtB5_16CallsignProvider15lookup_callsign
FN:242,_RNvNtNtNtCs5kss5fdZ6xS_14qsoripper_core6lookup8provider5testss_45disabled_provider_returns_configuration_error
FN:232,_RNvNtNtNtCs5kss5fdZ6xS_14qsoripper_core6lookup8provider5testss_50retryable_errors_are_transport_and_rate_limit_only
FN:209,_RINvMs2_NtNtCsgPbJLsevrBc_14qsoripper_core6lookup8providerNtB6_24DisabledCallsignProvider3newNtNtCs2ocB3yIIgEv_5alloc6string6StringECsujLUsjorcV_16qsoripper_server
FNDA:0,_RINvMs_NtNtCsgPbJLsevrBc_14qsoripper_core6lookup8providerNtB5_19ProviderLookupError12rate_limitedNtNtCs2ocB3yIIgEv_5alloc6string6StringEB9_
FNDA:2,_RINvMs_NtNtCsgPbJLsevrBc_14qsoripper_core6lookup8providerNtB5_19ProviderLookupError13configurationNtNtCs2ocB3yIIgEv_5alloc6string6StringEB9_
FNDA:0,_RINvMs_NtNtCsgPbJLsevrBc_14qsoripper_core6lookup8providerNtB5_19ProviderLookupError14authenticationNtNtCs2ocB3yIIgEv_5alloc6string6StringEB9_
FNDA:35,_RINvMs_NtNtCsgPbJLsevrBc_14qsoripper_core6lookup8providerNtB5_19ProviderLookupError3newNtNtCs2ocB3yIIgEv_5alloc6string6StringEB9_
FNDA:0,_RINvMs_NtNtCsgPbJLsevrBc_14qsoripper_core6lookup8providerNtB5_19ProviderLookupError5parseNtNtCs2ocB3yIIgEv_5alloc6string6StringEB9_
FNDA:0,_RINvMs_NtNtCsgPbJLsevrBc_14qsoripper_core6lookup8providerNtB5_19ProviderLookupError7sessionNtNtCs2ocB3yIIgEv_5alloc6string6StringEB9_
FNDA:33,_RINvMs_NtNtCsgPbJLsevrBc_14qsoripper_core6lookup8providerNtB5_19ProviderLookupError9transportNtNtCs2ocB3yIIgEv_5alloc6string6StringEB9_
FNDA:33,_RNvMNtNtCsgPbJLsevrBc_14qsoripper_core6lookup8providerNtB2_14ProviderLookup5found
FNDA:67,_RNvMNtNtCsgPbJLsevrBc_14qsoripper_core6lookup8providerNtB2_14ProviderLookup9not_found
FNDA:0,_RNvMs_NtNtCsgPbJLsevrBc_14qsoripper_core6lookup8providerNtB4_19ProviderLookupError12is_retryable
FNDA:158,_RNvMs_NtNtCsgPbJLsevrBc_14qsoripper_core6lookup8providerNtB4_19ProviderLookupError20debug_http_exchanges
FNDA:0,_RNvMs_NtNtCsgPbJLsevrBc_14qsoripper_core6lookup8providerNtB4_19ProviderLookupError31with_prior_debug_http_exchanges
FNDA:158,_RNvXs0_NtNtCsgPbJLsevrBc_14qsoripper_core6lookup8providerNtB5_19ProviderLookupErrorNtNtCs5cb5cxfFw7H_4core3fmt7Display3fmt
FNDA:2,_RNvXsh_NtNtCsgPbJLsevrBc_14qsoripper_core6lookup8providerNtB5_24DisabledCallsignProviderNtB5_16CallsignProvider15lookup_callsign
FNDA:0,_RINvMs2_NtNtCsgPbJLsevrBc_14qsoripper_core6lookup8providerNtB6_24DisabledCallsignProvider3newpEBa_
FNDA:1,_RINvMs2_NtNtCs5kss5fdZ6xS_14qsoripper_core6lookup8providerNtB6_24DisabledCallsignProvider3newReEBa_
FNDA:0,_RINvMs_NtNtCs5kss5fdZ6xS_14qsoripper_core6lookup8providerNtB5_19ProviderLookupError12rate_limitedNtNtCs2ocB3yIIgEv_5alloc6string6StringEB9_
FNDA:1,_RINvMs_NtNtCs5kss5fdZ6xS_14qsoripper_core6lookup8providerNtB5_19ProviderLookupError12rate_limitedReEB9_
FNDA:1,_RINvMs_NtNtCs5kss5fdZ6xS_14qsoripper_core6lookup8providerNtB5_19ProviderLookupError13configurationNtNtCs2ocB3yIIgEv_5alloc6string6StringEB9_
FNDA:1,_RINvMs_NtNtCs5kss5fdZ6xS_14qsoripper_core6lookup8providerNtB5_19ProviderLookupError13configurationReEB9_
FNDA:1,_RINvMs_NtNtCs5kss5fdZ6xS_14qsoripper_core6lookup8providerNtB5_19ProviderLookupError14authenticationNtNtCs2ocB3yIIgEv_5alloc6string6StringEB9_
FNDA:1,_RINvMs_NtNtCs5kss5fdZ6xS_14qsoripper_core6lookup8providerNtB5_19ProviderLookupError14authenticationReEB9_
FNDA:4,_RINvMs_NtNtCs5kss5fdZ6xS_14qsoripper_core6lookup8providerNtB5_19ProviderLookupError3newNtNtCs2ocB3yIIgEv_5alloc6string6StringEB9_
FNDA:6,_RINvMs_NtNtCs5kss5fdZ6xS_14qsoripper_core6lookup8providerNtB5_19ProviderLookupError3newReEB9_
FNDA:1,_RINvMs_NtNtCs5kss5fdZ6xS_14qsoripper_core6lookup8providerNtB5_19ProviderLookupError5parseNtNtCs2ocB3yIIgEv_5alloc6string6StringEB9_
FNDA:1,_RINvMs_NtNtCs5kss5fdZ6xS_14qsoripper_core6lookup8providerNtB5_19ProviderLookupError5parseReEB9_
FNDA:0,_RINvMs_NtNtCs5kss5fdZ6xS_14qsoripper_core6lookup8providerNtB5_19ProviderLookupError7sessionNtNtCs2ocB3yIIgEv_5alloc6string6StringEB9_
FNDA:1,_RINvMs_NtNtCs5kss5fdZ6xS_14qsoripper_core6lookup8providerNtB5_19ProviderLookupError7sessionReEB9_
FNDA:1,_RINvMs_NtNtCs5kss5fdZ6xS_14qsoripper_core6lookup8providerNtB5_19ProviderLookupError9transportNtNtCs2ocB3yIIgEv_5alloc6string6StringEB9_
FNDA:1,_RINvMs_NtNtCs5kss5fdZ6xS_14qsoripper_core6lookup8providerNtB5_19ProviderLookupError9transportReEB9_
FNDA:1,_RNCNvNtNtNtCs5kss5fdZ6xS_14qsoripper_core6lookup8provider5testss_45disabled_provider_returns_configuration_error0B9_
FNDA:8,_RNvMNtNtCs5kss5fdZ6xS_14qsoripper_core6lookup8providerNtB2_14ProviderLookup5found
FNDA:1,_RNvMNtNtCs5kss5fdZ6xS_14qsoripper_core6lookup8providerNtB2_14ProviderLookup9not_found
FNDA:6,_RNvMs_NtNtCs5kss5fdZ6xS_14qsoripper_core6lookup8providerNtB4_19ProviderLookupError12is_retryable
FNDA:5,_RNvMs_NtNtCs5kss5fdZ6xS_14qsoripper_core6lookup8providerNtB4_19ProviderLookupError20debug_http_exchanges
FNDA:3,_RNvMs_NtNtCs5kss5fdZ6xS_14qsoripper_core6lookup8providerNtB4_19ProviderLookupError31with_prior_debug_http_exchanges
FNDA:3,_RNvXs0_NtNtCs5kss5fdZ6xS_14qsoripper_core6lookup8providerNtB5_19ProviderLookupErrorNtNtCs5cb5cxfFw7H_4core3fmt7Display3fmt
FNDA:1,_RNvXsh_NtNtCs5kss5fdZ6xS_14qsoripper_core6lookup8providerNtB5_24DisabledCallsignProviderNtB5_16CallsignProvider15lookup_callsign
FNDA:1,_RNvNtNtNtCs5kss5fdZ6xS_14qsoripper_core6lookup8provider5testss_45disabled_provider_returns_configuration_error
FNDA:1,_RNvNtNtNtCs5kss5fdZ6xS_14qsoripper_core6lookup8provider5testss_50retryable_errors_are_transport_and_rate_limit_only
FNDA:51,_RINvMs2_NtNtCsgPbJLsevrBc_14qsoripper_core6lookup8providerNtB6_24DisabledCallsignProvider3newNtNtCs2ocB3yIIgEv_5alloc6string6StringECsujLUsjorcV_16qsoripper_server
FNF:18
FNH:18
DA:24,41
DA:25,41
DA:26,41
DA:27,41
DA:28,41
DA:29,41
DA:33,68
DA:34,68
DA:35,68
DA:36,68
DA:37,68
DA:38,68
DA:78,4
DA:79,4
DA:80,4
DA:84,2
DA:85,2
DA:86,2
DA:87,2
DA:88,2
DA:89,2
DA:90,2
DA:91,2
DA:93,2
DA:97,1
DA:98,1
DA:99,1
DA:100,1
DA:101,1
DA:102,1
DA:103,1
DA:104,1
DA:106,1
DA:110,35
DA:111,35
DA:112,35
DA:113,35
DA:114,35
DA:115,35
DA:116,35
DA:117,35
DA:119,35
DA:123,2
DA:124,2
DA:125,2
DA:126,2
DA:127,2
DA:129,2
DA:133,1
DA:134,1
DA:135,1
DA:136,1
DA:137,1
DA:138,1
DA:139,1
DA:140,1
DA:142,1
DA:144,45
DA:145,45
DA:146,45
DA:147,45
DA:148,45
DA:149,45
DA:150,45
DA:151,45
DA:152,45
DA:153,45
DA:154,45
DA:158,163
DA:159,163
DA:160,163
DA:164,3
DA:165,3
DA:166,3
DA:167,3
DA:168,3
DA:172,6
DA:173,4
DA:174,6
DA:177,6
DA:181,161
DA:182,161
DA:183,161
DA:184,161
DA:185,161
DA:186,3
DA:187,1
DA:188,0
DA:189,157
DA:190,0
DA:191,0
DA:195,161
DA:209,52
DA:210,52
DA:211,52
DA:212,52
DA:213,52
DA:221,3
DA:223,3
DA:232,1
DA:233,1
DA:234,1
DA:235,1
DA:236,1
DA:237,1
DA:238,1
DA:239,1
DA:242,1
DA:243,1
DA:245,1
DA:247,1
DA:248,1
DA:249,1
DA:250,1
DA:251,1
BRF:0
BRH:0
LF:118
LH:115
end_of_record
SF:C:\Users\randy\Git\qsoripper-adif-refresh\src\rust\qsoripper-core\src\lookup\qrz_xml.rs
FN:104,_RINvMs_NtNtCsgPbJLsevrBc_14qsoripper_core6lookup7qrz_xmlNtB5_12QrzXmlConfig19from_value_providerNCNvB2_8from_env0EB9_
FN:732,_RINvNtNtCsgPbJLsevrBc_14qsoripper_core6lookup7qrz_xml14optional_valueNCNvMs_B2_NtB2_12QrzXmlConfig8from_env0EB6_
FN:722,_RINvNtNtCsgPbJLsevrBc_14qsoripper_core6lookup7qrz_xml14required_valueNCNvMs_B2_NtB2_12QrzXmlConfig8from_env0EB6_
FN:763,_RINvNtNtCsgPbJLsevrBc_14qsoripper_core6lookup7qrz_xml18optional_value_u32NCNvMs_B2_NtB2_12QrzXmlConfig8from_env0EB6_
FN:746,_RINvNtNtCsgPbJLsevrBc_14qsoripper_core6lookup7qrz_xml18optional_value_u64NCNvMs_B2_NtB2_12QrzXmlConfig8from_env0EB6_
FN:780,_RINvNtNtCsgPbJLsevrBc_14qsoripper_core6lookup7qrz_xml19optional_value_boolNCNvMs_B2_NtB2_12QrzXmlConfig8from_env0EB6_
FN:109,_RNCINvMs_NtNtCsgPbJLsevrBc_14qsoripper_core6lookup7qrz_xmlNtB7_12QrzXmlConfig19from_value_providerNCNvB4_8from_env0E0Bb_
FN:736,_RNCINvNtNtCsgPbJLsevrBc_14qsoripper_core6lookup7qrz_xml14optional_valueNCNvMs_B4_NtB4_12QrzXmlConfig8from_env0E0B8_
FN:775,_RNCINvNtNtCsgPbJLsevrBc_14qsoripper_core6lookup7qrz_xml18optional_value_u32NCNvMs_B4_NtB4_12QrzXmlConfig8from_env0E0B8_
FN:758,_RNCINvNtNtCsgPbJLsevrBc_14qsoripper_core6lookup7qrz_xml18optional_value_u64NCNvMs_B4_NtB4_12QrzXmlConfig8from_env0E0B8_
FN:315,_RNCNCNvMs0_NtNtCsgPbJLsevrBc_14qsoripper_core6lookup7qrz_xmlNtB9_14QrzXmlProvider12send_request00Bd_
FN:391,_RNCNCNvMs0_NtNtCsgPbJLsevrBc_14qsoripper_core6lookup7qrz_xmlNtB9_14QrzXmlProvider12send_request0s0_0Bd_
FN:355,_RNCNCNvMs0_NtNtCsgPbJLsevrBc_14qsoripper_core6lookup7qrz_xmlNtB9_14QrzXmlProvider12send_request0s_0Bd_
FN:274,_RNCNCNvMs0_NtNtCsgPbJLsevrBc_14qsoripper_core6lookup7qrz_xmlNtB9_14QrzXmlProvider16request_database00Bd_
FN:232,_RNCNCNvMs0_NtNtCsgPbJLsevrBc_14qsoripper_core6lookup7qrz_xmlNtB9_14QrzXmlProvider5login00Bd_
FN:246,_RNCNCNvMs0_NtNtCsgPbJLsevrBc_14qsoripper_core6lookup7qrz_xmlNtB9_14QrzXmlProvider5login0s_0Bd_
FN:1002,_RNCNCNvNtNtCsgPbJLsevrBc_14qsoripper_core6lookup7qrz_xml13parse_aliases00B9_
FN:469,_RNCNCNvXs6_NtNtCsgPbJLsevrBc_14qsoripper_core6lookup7qrz_xmlNtB9_14QrzXmlProviderNtNtBb_8provider16CallsignProvider15lookup_callsign00Bd_
FN:487,_RNCNCNvXs6_NtNtCsgPbJLsevrBc_14qsoripper_core6lookup7qrz_xmlNtB9_14QrzXmlProviderNtNtBb_8provider16CallsignProvider15lookup_callsign0s0_0Bd_
FN:524,_RNCNCNvXs6_NtNtCsgPbJLsevrBc_14qsoripper_core6lookup7qrz_xmlNtB9_14QrzXmlProviderNtNtBb_8provider16CallsignProvider15lookup_callsign0s1_0Bd_
FN:482,_RNCNCNvXs6_NtNtCsgPbJLsevrBc_14qsoripper_core6lookup7qrz_xmlNtB9_14QrzXmlProviderNtNtBb_8provider16CallsignProvider15lookup_callsign0s_0Bd_
FN:305,_RNCNvMs0_NtNtCsgPbJLsevrBc_14qsoripper_core6lookup7qrz_xmlNtB7_14QrzXmlProvider12send_request0Bb_
FN:269,_RNCNvMs0_NtNtCsgPbJLsevrBc_14qsoripper_core6lookup7qrz_xmlNtB7_14QrzXmlProvider16request_database0Bb_
FN:261,_RNCNvMs0_NtNtCsgPbJLsevrBc_14qsoripper_core6lookup7qrz_xmlNtB7_14QrzXmlProvider17clear_session_key0Bb_
FN:257,_RNCNvMs0_NtNtCsgPbJLsevrBc_14qsoripper_core6lookup7qrz_xmlNtB7_14QrzXmlProvider17store_session_key0Bb_
FN:212,_RNCNvMs0_NtNtCsgPbJLsevrBc_14qsoripper_core6lookup7qrz_xmlNtB7_14QrzXmlProvider18ensure_session_key0Bb_
FN:286,_RNCNvMs0_NtNtCsgPbJLsevrBc_14qsoripper_core6lookup7qrz_xmlNtB7_14QrzXmlProvider23capture_request_message0Bb_
FN:197,_RNCNvMs0_NtNtCsgPbJLsevrBc_14qsoripper_core6lookup7qrz_xmlNtB7_14QrzXmlProvider3new0Bb_
FN:220,_RNCNvMs0_NtNtCsgPbJLsevrBc_14qsoripper_core6lookup7qrz_xmlNtB7_14QrzXmlProvider5login0Bb_
FN:92,_RNCNvMs_NtNtCsgPbJLsevrBc_14qsoripper_core6lookup7qrz_xmlNtB6_12QrzXmlConfig8from_env0Ba_
FN:1000,_RNCNvNtNtCsgPbJLsevrBc_14qsoripper_core6lookup7qrz_xml13parse_aliases0B7_
FN:861,_RNCNvNtNtCsgPbJLsevrBc_14qsoripper_core6lookup7qrz_xml15capture_headers0B7_
FN:865,_RNCNvNtNtCsgPbJLsevrBc_14qsoripper_core6lookup7qrz_xml15capture_headerss_0B7_
FN:1067,_RNCNvNtNtCsgPbJLsevrBc_14qsoripper_core6lookup7qrz_xml16parse_gmt_offset0B7_
FN:961,_RNCNvNtNtCsgPbJLsevrBc_14qsoripper_core6lookup7qrz_xml17value_diagnostics0B7_
FN:965,_RNCNvNtNtCsgPbJLsevrBc_14qsoripper_core6lookup7qrz_xml17value_diagnosticss_0B7_
FN:846,_RNCNvNtNtCsgPbJLsevrBc_14qsoripper_core6lookup7qrz_xml18redact_request_url0B7_
FN:664,_RNCNvNtNtCsgPbJLsevrBc_14qsoripper_core6lookup7qrz_xml19map_callsign_record0B7_
FN:668,_RNCNvNtNtCsgPbJLsevrBc_14qsoripper_core6lookup7qrz_xml19map_callsign_records_0B7_
FN:301,_RNvMs0_NtNtCsgPbJLsevrBc_14qsoripper_core6lookup7qrz_xmlNtB5_14QrzXmlProvider12send_request
FN:265,_RNvMs0_NtNtCsgPbJLsevrBc_14qsoripper_core6lookup7qrz_xmlNtB5_14QrzXmlProvider16request_database
FN:261,_RNvMs0_NtNtCsgPbJLsevrBc_14qsoripper_core6lookup7qrz_xmlNtB5_14QrzXmlProvider17clear_session_key
FN:257,_RNvMs0_NtNtCsgPbJLsevrBc_14qsoripper_core6lookup7qrz_xmlNtB5_14QrzXmlProvider17store_session_key
FN:210,_RNvMs0_NtNtCsgPbJLsevrBc_14qsoripper_core6lookup7qrz_xmlNtB5_14QrzXmlProvider18ensure_session_key
FN:283,_RNvMs0_NtNtCsgPbJLsevrBc_14qsoripper_core6lookup7qrz_xmlNtB5_14QrzXmlProvider23capture_request_message
FN:192,_RNvMs0_NtNtCsgPbJLsevrBc_14qsoripper_core6lookup7qrz_xmlNtB5_14QrzXmlProvider3new
FN:220,_RNvMs0_NtNtCsgPbJLsevrBc_14qsoripper_core6lookup7qrz_xmlNtB5_14QrzXmlProvider5login
FN:145,_RNvMs_NtNtCsgPbJLsevrBc_14qsoripper_core6lookup7qrz_xmlNtB4_12QrzXmlConfig12capture_only
FN:139,_RNvMs_NtNtCsgPbJLsevrBc_14qsoripper_core6lookup7qrz_xmlNtB4_12QrzXmlConfig8base_url
FN:91,_RNvMs_NtNtCsgPbJLsevrBc_14qsoripper_core6lookup7qrz_xmlNtB4_12QrzXmlConfig8from_env
FN:809,_RNvNtNtCsgPbJLsevrBc_14qsoripper_core6lookup7qrz_xml11retry_delay
FN:1019,_RNvNtNtCsgPbJLsevrBc_14qsoripper_core6lookup7qrz_xml12parse_yes_no
FN:833,_RNvNtNtCsgPbJLsevrBc_14qsoripper_core6lookup7qrz_xml13is_auth_error
FN:999,_RNvNtNtCsgPbJLsevrBc_14qsoripper_core6lookup7qrz_xml13parse_aliases
FN:1076,_RNvNtNtCsgPbJLsevrBc_14qsoripper_core6lookup7qrz_xml14map_geo_source
FN:857,_RNvNtNtCsgPbJLsevrBc_14qsoripper_core6lookup7qrz_xml15capture_headers
FN:990,_RNvNtNtCsgPbJLsevrBc_14qsoripper_core6lookup7qrz_xml15optional_string
FN:1047,_RNvNtNtCsgPbJLsevrBc_14qsoripper_core6lookup7qrz_xml16parse_bio_length
FN:1053,_RNvNtNtCsgPbJLsevrBc_14qsoripper_core6lookup7qrz_xml16parse_gmt_offset
FN:869,_RNvNtNtCsgPbJLsevrBc_14qsoripper_core6lookup7qrz_xml17mask_header_value
FN:958,_RNvNtNtCsgPbJLsevrBc_14qsoripper_core6lookup7qrz_xml17value_diagnostics
FN:825,_RNvNtNtCsgPbJLsevrBc_14qsoripper_core6lookup7qrz_xml18is_not_found_error
FN:1094,_RNvNtNtCsgPbJLsevrBc_14qsoripper_core6lookup7qrz_xml18map_qsl_preference
FN:925,_RNvNtNtCsgPbJLsevrBc_14qsoripper_core6lookup7qrz_xml18mask_capture_value
FN:801,_RNvNtNtCsgPbJLsevrBc_14qsoripper_core6lookup7qrz_xml18normalize_base_url
FN:841,_RNvNtNtCsgPbJLsevrBc_14qsoripper_core6lookup7qrz_xml18redact_request_url
FN:660,_RNvNtNtCsgPbJLsevrBc_14qsoripper_core6lookup7qrz_xml19map_callsign_record
FN:1027,_RNvNtNtCsgPbJLsevrBc_14qsoripper_core6lookup7qrz_xml20parse_date_timestamp
FN:933,_RNvNtNtCsgPbJLsevrBc_14qsoripper_core6lookup7qrz_xml20render_capture_query
FN:814,_RNvNtNtCsgPbJLsevrBc_14qsoripper_core6lookup7qrz_xml22duration_to_millis_u32
FN:951,_RNvNtNtCsgPbJLsevrBc_14qsoripper_core6lookup7qrz_xml22is_sensitive_query_key
FN:884,_RNvNtNtCsgPbJLsevrBc_14qsoripper_core6lookup7qrz_xml23redact_qrz_xml_response
FN:888,_RNvNtNtCsgPbJLsevrBc_14qsoripper_core6lookup7qrz_xml23redact_xml_tag_contents
FN:877,_RNvNtNtCsgPbJLsevrBc_14qsoripper_core6lookup7qrz_xml24is_sensitive_header_name
FN:1037,_RNvNtNtCsgPbJLsevrBc_14qsoripper_core6lookup7qrz_xml24parse_datetime_timestamp
FN:914,_RNvNtNtCsgPbJLsevrBc_14qsoripper_core6lookup7qrz_xml24system_time_to_timestamp
FN:829,_RNvNtNtCsgPbJLsevrBc_14qsoripper_core6lookup7qrz_xml27is_connection_refused_error
FN:821,_RNvNtNtCsgPbJLsevrBc_14qsoripper_core6lookup7qrz_xml28is_retryable_transport_error
FN:1015,_RNvNtNtCsgPbJLsevrBc_14qsoripper_core6lookup7qrz_xml9parse_f64
FN:1007,_RNvNtNtCsgPbJLsevrBc_14qsoripper_core6lookup7qrz_xml9parse_u32
FN:1011,_RNvNtNtCsgPbJLsevrBc_14qsoripper_core6lookup7qrz_xml9parse_u64
FN:59,_RNvXNtNtCsgPbJLsevrBc_14qsoripper_core6lookup7qrz_xmlNtB2_12QrzXmlConfigNtNtCs5cb5cxfFw7H_4core3fmt5Debug3fmt
FN:462,_RNvXs6_NtNtCsgPbJLsevrBc_14qsoripper_core6lookup7qrz_xmlNtB5_14QrzXmlProviderNtNtB7_8provider16CallsignProvider15lookup_callsign
FN:145,_RNvMs_NtNtCs5kss5fdZ6xS_14qsoripper_core6lookup7qrz_xmlNtB4_12QrzXmlConfig12capture_only
FN:139,_RNvMs_NtNtCs5kss5fdZ6xS_14qsoripper_core6lookup7qrz_xmlNtB4_12QrzXmlConfig8base_url
FN:301,_RNvMs0_NtNtCs5kss5fdZ6xS_14qsoripper_core6lookup7qrz_xmlNtB5_14QrzXmlProvider12send_request
FN:265,_RNvMs0_NtNtCs5kss5fdZ6xS_14qsoripper_core6lookup7qrz_xmlNtB5_14QrzXmlProvider16request_database
FN:261,_RNvMs0_NtNtCs5kss5fdZ6xS_14qsoripper_core6lookup7qrz_xmlNtB5_14QrzXmlProvider17clear_session_key
FN:257,_RNvMs0_NtNtCs5kss5fdZ6xS_14qsoripper_core6lookup7qrz_xmlNtB5_14QrzXmlProvider17store_session_key
FN:210,_RNvMs0_NtNtCs5kss5fdZ6xS_14qsoripper_core6lookup7qrz_xmlNtB5_14QrzXmlProvider18ensure_session_key
FN:283,_RNvMs0_NtNtCs5kss5fdZ6xS_14qsoripper_core6lookup7qrz_xmlNtB5_14QrzXmlProvider23capture_request_message
FN:192,_RNvMs0_NtNtCs5kss5fdZ6xS_14qsoripper_core6lookup7qrz_xmlNtB5_14QrzXmlProvider3new
FN:220,_RNvMs0_NtNtCs5kss5fdZ6xS_14qsoripper_core6lookup7qrz_xmlNtB5_14QrzXmlProvider5login
FN:91,_RNvMs_NtNtCs5kss5fdZ6xS_14qsoripper_core6lookup7qrz_xmlNtB4_12QrzXmlConfig8from_env
FN:809,_RNvNtNtCs5kss5fdZ6xS_14qsoripper_core6lookup7qrz_xml11retry_delay
FN:1019,_RNvNtNtCs5kss5fdZ6xS_14qsoripper_core6lookup7qrz_xml12parse_yes_no
FN:833,_RNvNtNtCs5kss5fdZ6xS_14qsoripper_core6lookup7qrz_xml13is_auth_error
FN:999,_RNvNtNtCs5kss5fdZ6xS_14qsoripper_core6lookup7qrz_xml13parse_aliases
FN:1076,_RNvNtNtCs5kss5fdZ6xS_14qsoripper_core6lookup7qrz_xml14map_geo_source
FN:857,_RNvNtNtCs5kss5fdZ6xS_14qsoripper_core6lookup7qrz_xml15capture_headers
FN:990,_RNvNtNtCs5kss5fdZ6xS_14qsoripper_core6lookup7qrz_xml15optional_string
FN:1047,_RNvNtNtCs5kss5fdZ6xS_14qsoripper_core6lookup7qrz_xml16parse_bio_length
FN:1053,_RNvNtNtCs5kss5fdZ6xS_14qsoripper_core6lookup7qrz_xml16parse_gmt_offset
FN:869,_RNvNtNtCs5kss5fdZ6xS_14qsoripper_core6lookup7qrz_xml17mask_header_value
FN:958,_RNvNtNtCs5kss5fdZ6xS_14qsoripper_core6lookup7qrz_xml17value_diagnostics
FN:825,_RNvNtNtCs5kss5fdZ6xS_14qsoripper_core6lookup7qrz_xml18is_not_found_error
FN:1094,_RNvNtNtCs5kss5fdZ6xS_14qsoripper_core6lookup7qrz_xml18map_qsl_preference
FN:925,_RNvNtNtCs5kss5fdZ6xS_14qsoripper_core6lookup7qrz_xml18mask_capture_value
FN:801,_RNvNtNtCs5kss5fdZ6xS_14qsoripper_core6lookup7qrz_xml18normalize_base_url
FN:841,_RNvNtNtCs5kss5fdZ6xS_14qsoripper_core6lookup7qrz_xml18redact_request_url
FN:660,_RNvNtNtCs5kss5fdZ6xS_14qsoripper_core6lookup7qrz_xml19map_callsign_record
FN:1027,_RNvNtNtCs5kss5fdZ6xS_14qsoripper_core6lookup7qrz_xml20parse_date_timestamp
FN:933,_RNvNtNtCs5kss5fdZ6xS_14qsoripper_core6lookup7qrz_xml20render_capture_query
FN:814,_RNvNtNtCs5kss5fdZ6xS_14qsoripper_core6lookup7qrz_xml22duration_to_millis_u32
FN:951,_RNvNtNtCs5kss5fdZ6xS_14qsoripper_core6lookup7qrz_xml22is_sensitive_query_key
FN:884,_RNvNtNtCs5kss5fdZ6xS_14qsoripper_core6lookup7qrz_xml23redact_qrz_xml_response
FN:888,_RNvNtNtCs5kss5fdZ6xS_14qsoripper_core6lookup7qrz_xml23redact_xml_tag_contents
FN:877,_RNvNtNtCs5kss5fdZ6xS_14qsoripper_core6lookup7qrz_xml24is_sensitive_header_name
FN:1037,_RNvNtNtCs5kss5fdZ6xS_14qsoripper_core6lookup7qrz_xml24parse_datetime_timestamp
FN:914,_RNvNtNtCs5kss5fdZ6xS_14qsoripper_core6lookup7qrz_xml24system_time_to_timestamp
FN:829,_RNvNtNtCs5kss5fdZ6xS_14qsoripper_core6lookup7qrz_xml27is_connection_refused_error
FN:821,_RNvNtNtCs5kss5fdZ6xS_14qsoripper_core6lookup7qrz_xml28is_retryable_transport_error
FN:1015,_RNvNtNtCs5kss5fdZ6xS_14qsoripper_core6lookup7qrz_xml9parse_f64
FN:1007,_RNvNtNtCs5kss5fdZ6xS_14qsoripper_core6lookup7qrz_xml9parse_u32
FN:1011,_RNvNtNtCs5kss5fdZ6xS_14qsoripper_core6lookup7qrz_xml9parse_u64
FN:59,_RNvXNtNtCs5kss5fdZ6xS_14qsoripper_core6lookup7qrz_xmlNtB2_12QrzXmlConfigNtNtCs5cb5cxfFw7H_4core3fmt5Debug3fmt
FN:462,_RNvXs6_NtNtCs5kss5fdZ6xS_14qsoripper_core6lookup7qrz_xmlNtB5_14QrzXmlProviderNtNtB7_8provider16CallsignProvider15lookup_callsign
FN:1534,_RNvNtNtNtCs5kss5fdZ6xS_14qsoripper_core6lookup7qrz_xml5tests11restore_env
FN:1208,_RNvNtNtNtCs5kss5fdZ6xS_14qsoripper_core6lookup7qrz_xml5tests11test_config
FN:1220,_RNvNtNtNtCs5kss5fdZ6xS_14qsoripper_core6lookup7qrz_xml5tests16spawn_qrz_server
FN:1246,_RNvNtNtNtCs5kss5fdZ6xS_14qsoripper_core6lookup7qrz_xml5tests17read_http_request
FN:1264,_RNvNtNtNtCs5kss5fdZ6xS_14qsoripper_core6lookup7qrz_xml5tests19write_http_response
FN:1542,_RNvNtNtNtCs5kss5fdZ6xS_14qsoripper_core6lookup7qrz_xml5tests8env_lock
FN:1304,_RNvNtNtNtCs5kss5fdZ6xS_14qsoripper_core6lookup7qrz_xml5testss_37parse_gmt_offset_supports_hhmm_format
FN:1277,_RNvNtNtNtCs5kss5fdZ6xS_14qsoripper_core6lookup7qrz_xml5testss_41qrz_callsign_payload_maps_to_proto_record
FN:1455,_RNvNtNtNtCs5kss5fdZ6xS_14qsoripper_core6lookup7qrz_xml5testss_42capture_rendering_redacts_sensitive_values
FN:1297,_RNvNtNtNtCs5kss5fdZ6xS_14qsoripper_core6lookup7qrz_xml5testss_45not_found_error_detection_is_case_insensitive
FN:1501,_RNvNtNtNtCs5kss5fdZ6xS_14qsoripper_core6lookup7qrz_xml5testss_45qrz_config_rejects_invalid_capture_only_value
FN:1471,_RNvNtNtNtCs5kss5fdZ6xS_14qsoripper_core6lookup7qrz_xml5testss_46qrz_config_supports_capture_only_flag_from_env
FN:1464,_RNvNtNtNtCs5kss5fdZ6xS_14qsoripper_core6lookup7qrz_xml5testss_49response_redaction_masks_unterminated_session_key
FN:1356,_RNvNtNtNtCs5kss5fdZ6xS_14qsoripper_core6lookup7qrz_xml5testss_50lookup_callsign_retries_after_session_timeout_once
FN:1310,_RNvNtNtNtCs5kss5fdZ6xS_14qsoripper_core6lookup7qrz_xml5testss_51lookup_callsign_logs_in_then_queries_by_session_key
FN:1429,_RNvNtNtNtCs5kss5fdZ6xS_14qsoripper_core6lookup7qrz_xml5testss_54capture_only_mode_returns_redacted_request_diagnostics
FN:1385,_RNvNtNtNtCs5kss5fdZ6xS_14qsoripper_core6lookup7qrz_xml5testss_54lookup_callsign_surfaces_login_authentication_failures
FN:1374,_RNvNtNtNtCs5kss5fdZ6xS_14qsoripper_core6lookup7qrz_xml5testss_60lookup_callsign_returns_not_found_when_qrz_keeps_session_key
FN:1401,_RNvNtNtNtCs5kss5fdZ6xS_14qsoripper_core6lookup7qrz_xml5testss_62lookup_failure_after_login_preserves_login_and_lookup_captures
FN:1527,_RNvNtNtNtCs5kss5fdZ6xS_14qsoripper_core6lookup7qrz_xml5testss_65sensitive_query_detection_catches_qrz_session_and_password_fields
FN:1231,_RNCNCNvNtNtNtCs5kss5fdZ6xS_14qsoripper_core6lookup7qrz_xml5tests16spawn_qrz_server00Bb_
FN:1256,_RNCNCNvNtNtNtCs5kss5fdZ6xS_14qsoripper_core6lookup7qrz_xml5tests17read_http_request00Bb_
FN:1220,_RNCNvNtNtNtCs5kss5fdZ6xS_14qsoripper_core6lookup7qrz_xml5tests16spawn_qrz_server0B9_
FN:1246,_RNCNvNtNtNtCs5kss5fdZ6xS_14qsoripper_core6lookup7qrz_xml5tests17read_http_request0B9_
FN:1264,_RNCNvNtNtNtCs5kss5fdZ6xS_14qsoripper_core6lookup7qrz_xml5tests19write_http_response0B9_
FN:1544,_RNCNvNtNtNtCs5kss5fdZ6xS_14qsoripper_core6lookup7qrz_xml5tests8env_lock0B9_
FN:1356,_RNCNvNtNtNtCs5kss5fdZ6xS_14qsoripper_core6lookup7qrz_xml5testss_50lookup_callsign_retries_after_session_timeout_once0B9_
FN:1310,_RNCNvNtNtNtCs5kss5fdZ6xS_14qsoripper_core6lookup7qrz_xml5testss_51lookup_callsign_logs_in_then_queries_by_session_key0B9_
FN:1429,_RNCNvNtNtNtCs5kss5fdZ6xS_14qsoripper_core6lookup7qrz_xml5testss_54capture_only_mode_returns_redacted_request_diagnostics0B9_
FN:1385,_RNCNvNtNtNtCs5kss5fdZ6xS_14qsoripper_core6lookup7qrz_xml5testss_54lookup_callsign_surfaces_login_authentication_failures0B9_
FN:1374,_RNCNvNtNtNtCs5kss5fdZ6xS_14qsoripper_core6lookup7qrz_xml5testss_60lookup_callsign_returns_not_found_when_qrz_keeps_session_key0B9_
FN:1401,_RNCNvNtNtNtCs5kss5fdZ6xS_14qsoripper_core6lookup7qrz_xml5testss_62lookup_failure_after_login_preserves_login_and_lookup_captures0B9_
FN:104,_RINvMs_NtNtCs5kss5fdZ6xS_14qsoripper_core6lookup7qrz_xmlNtB5_12QrzXmlConfig19from_value_providerNCNvB2_8from_env0EB9_
FN:732,_RINvNtNtCs5kss5fdZ6xS_14qsoripper_core6lookup7qrz_xml14optional_valueNCNvMs_B2_NtB2_12QrzXmlConfig8from_env0EB6_
FN:722,_RINvNtNtCs5kss5fdZ6xS_14qsoripper_core6lookup7qrz_xml14required_valueNCNvMs_B2_NtB2_12QrzXmlConfig8from_env0EB6_
FN:763,_RINvNtNtCs5kss5fdZ6xS_14qsoripper_core6lookup7qrz_xml18optional_value_u32NCNvMs_B2_NtB2_12QrzXmlConfig8from_env0EB6_
FN:746,_RINvNtNtCs5kss5fdZ6xS_14qsoripper_core6lookup7qrz_xml18optional_value_u64NCNvMs_B2_NtB2_12QrzXmlConfig8from_env0EB6_
FN:780,_RINvNtNtCs5kss5fdZ6xS_14qsoripper_core6lookup7qrz_xml19optional_value_boolNCNvMs_B2_NtB2_12QrzXmlConfig8from_env0EB6_
FN:109,_RNCINvMs_NtNtCs5kss5fdZ6xS_14qsoripper_core6lookup7qrz_xmlNtB7_12QrzXmlConfig19from_value_providerNCNvB4_8from_env0E0Bb_
FN:736,_RNCINvNtNtCs5kss5fdZ6xS_14qsoripper_core6lookup7qrz_xml14optional_valueNCNvMs_B4_NtB4_12QrzXmlConfig8from_env0E0B8_
FN:775,_RNCINvNtNtCs5kss5fdZ6xS_14qsoripper_core6lookup7qrz_xml18optional_value_u32NCNvMs_B4_NtB4_12QrzXmlConfig8from_env0E0B8_
FN:758,_RNCINvNtNtCs5kss5fdZ6xS_14qsoripper_core6lookup7qrz_xml18optional_value_u64NCNvMs_B4_NtB4_12QrzXmlConfig8from_env0E0B8_
FN:315,_RNCNCNvMs0_NtNtCs5kss5fdZ6xS_14qsoripper_core6lookup7qrz_xmlNtB9_14QrzXmlProvider12send_request00Bd_
FN:391,_RNCNCNvMs0_NtNtCs5kss5fdZ6xS_14qsoripper_core6lookup7qrz_xmlNtB9_14QrzXmlProvider12send_request0s0_0Bd_
FN:355,_RNCNCNvMs0_NtNtCs5kss5fdZ6xS_14qsoripper_core6lookup7qrz_xmlNtB9_14QrzXmlProvider12send_request0s_0Bd_
FN:274,_RNCNCNvMs0_NtNtCs5kss5fdZ6xS_14qsoripper_core6lookup7qrz_xmlNtB9_14QrzXmlProvider16request_database00Bd_
FN:232,_RNCNCNvMs0_NtNtCs5kss5fdZ6xS_14qsoripper_core6lookup7qrz_xmlNtB9_14QrzXmlProvider5login00Bd_
FN:246,_RNCNCNvMs0_NtNtCs5kss5fdZ6xS_14qsoripper_core6lookup7qrz_xmlNtB9_14QrzXmlProvider5login0s_0Bd_
FN:1002,_RNCNCNvNtNtCs5kss5fdZ6xS_14qsoripper_core6lookup7qrz_xml13parse_aliases00B9_
FN:469,_RNCNCNvXs6_NtNtCs5kss5fdZ6xS_14qsoripper_core6lookup7qrz_xmlNtB9_14QrzXmlProviderNtNtBb_8provider16CallsignProvider15lookup_callsign00Bd_
FN:487,_RNCNCNvXs6_NtNtCs5kss5fdZ6xS_14qsoripper_core6lookup7qrz_xmlNtB9_14QrzXmlProviderNtNtBb_8provider16CallsignProvider15lookup_callsign0s0_0Bd_
FN:524,_RNCNCNvXs6_NtNtCs5kss5fdZ6xS_14qsoripper_core6lookup7qrz_xmlNtB9_14QrzXmlProviderNtNtBb_8provider16CallsignProvider15lookup_callsign0s1_0Bd_
FN:482,_RNCNCNvXs6_NtNtCs5kss5fdZ6xS_14qsoripper_core6lookup7qrz_xmlNtB9_14QrzXmlProviderNtNtBb_8provider16CallsignProvider15lookup_callsign0s_0Bd_
FN:305,_RNCNvMs0_NtNtCs5kss5fdZ6xS_14qsoripper_core6lookup7qrz_xmlNtB7_14QrzXmlProvider12send_request0Bb_
FN:269,_RNCNvMs0_NtNtCs5kss5fdZ6xS_14qsoripper_core6lookup7qrz_xmlNtB7_14QrzXmlProvider16request_database0Bb_
FN:261,_RNCNvMs0_NtNtCs5kss5fdZ6xS_14qsoripper_core6lookup7qrz_xmlNtB7_14QrzXmlProvider17clear_session_key0Bb_
FN:257,_RNCNvMs0_NtNtCs5kss5fdZ6xS_14qsoripper_core6lookup7qrz_xmlNtB7_14QrzXmlProvider17store_session_key0Bb_
FN:212,_RNCNvMs0_NtNtCs5kss5fdZ6xS_14qsoripper_core6lookup7qrz_xmlNtB7_14QrzXmlProvider18ensure_session_key0Bb_
FN:286,_RNCNvMs0_NtNtCs5kss5fdZ6xS_14qsoripper_core6lookup7qrz_xmlNtB7_14QrzXmlProvider23capture_request_message0Bb_
FN:197,_RNCNvMs0_NtNtCs5kss5fdZ6xS_14qsoripper_core6lookup7qrz_xmlNtB7_14QrzXmlProvider3new0Bb_
FN:220,_RNCNvMs0_NtNtCs5kss5fdZ6xS_14qsoripper_core6lookup7qrz_xmlNtB7_14QrzXmlProvider5login0Bb_
FN:92,_RNCNvMs_NtNtCs5kss5fdZ6xS_14qsoripper_core6lookup7qrz_xmlNtB6_12QrzXmlConfig8from_env0Ba_
FN:1000,_RNCNvNtNtCs5kss5fdZ6xS_14qsoripper_core6lookup7qrz_xml13parse_aliases0B7_
FN:861,_RNCNvNtNtCs5kss5fdZ6xS_14qsoripper_core6lookup7qrz_xml15capture_headers0B7_
FN:865,_RNCNvNtNtCs5kss5fdZ6xS_14qsoripper_core6lookup7qrz_xml15capture_headerss_0B7_
FN:1067,_RNCNvNtNtCs5kss5fdZ6xS_14qsoripper_core6lookup7qrz_xml16parse_gmt_offset0B7_
FN:961,_RNCNvNtNtCs5kss5fdZ6xS_14qsoripper_core6lookup7qrz_xml17value_diagnostics0B7_
FN:965,_RNCNvNtNtCs5kss5fdZ6xS_14qsoripper_core6lookup7qrz_xml17value_diagnosticss_0B7_
FN:846,_RNCNvNtNtCs5kss5fdZ6xS_14qsoripper_core6lookup7qrz_xml18redact_request_url0B7_
FN:664,_RNCNvNtNtCs5kss5fdZ6xS_14qsoripper_core6lookup7qrz_xml19map_callsign_record0B7_
FN:668,_RNCNvNtNtCs5kss5fdZ6xS_14qsoripper_core6lookup7qrz_xml19map_callsign_records_0B7_
FN:104,_RINvMs_NtNtCsgPbJLsevrBc_14qsoripper_core6lookup7qrz_xmlNtB5_12QrzXmlConfig19from_value_providerNCNvNtCsujLUsjorcV_16qsoripper_server14runtime_config21build_lookup_provider0EB1C_
FN:732,_RINvNtNtCsgPbJLsevrBc_14qsoripper_core6lookup7qrz_xml14optional_valueNCNvNtCsujLUsjorcV_16qsoripper_server14runtime_config21build_lookup_provider0EB1b_
FN:722,_RINvNtNtCsgPbJLsevrBc_14qsoripper_core6lookup7qrz_xml14required_valueNCNvNtCsujLUsjorcV_16qsoripper_server14runtime_config21build_lookup_provider0EB1b_
FN:763,_RINvNtNtCsgPbJLsevrBc_14qsoripper_core6lookup7qrz_xml18optional_value_u32NCNvNtCsujLUsjorcV_16qsoripper_server14runtime_config21build_lookup_provider0EB1f_
FN:746,_RINvNtNtCsgPbJLsevrBc_14qsoripper_core6lookup7qrz_xml18optional_value_u64NCNvNtCsujLUsjorcV_16qsoripper_server14runtime_config21build_lookup_provider0EB1f_
FN:780,_RINvNtNtCsgPbJLsevrBc_14qsoripper_core6lookup7qrz_xml19optional_value_boolNCNvNtCsujLUsjorcV_16qsoripper_server14runtime_config21build_lookup_provider0EB1g_
FN:109,_RNCINvMs_NtNtCsgPbJLsevrBc_14qsoripper_core6lookup7qrz_xmlNtB7_12QrzXmlConfig19from_value_providerNCNvNtCsujLUsjorcV_16qsoripper_server14runtime_config21build_lookup_provider0E0B1E_
FN:736,_RNCINvNtNtCsgPbJLsevrBc_14qsoripper_core6lookup7qrz_xml14optional_valueNCNvNtCsujLUsjorcV_16qsoripper_server14runtime_config21build_lookup_provider0E0B1d_
FN:775,_RNCINvNtNtCsgPbJLsevrBc_14qsoripper_core6lookup7qrz_xml18optional_value_u32NCNvNtCsujLUsjorcV_16qsoripper_server14runtime_config21build_lookup_provider0E0B1h_
FN:758,_RNCINvNtNtCsgPbJLsevrBc_14qsoripper_core6lookup7qrz_xml18optional_value_u64NCNvNtCsujLUsjorcV_16qsoripper_server14runtime_config21build_lookup_provider0E0B1h_
FNDA:0,_RINvMs_NtNtCsgPbJLsevrBc_14qsoripper_core6lookup7qrz_xmlNtB5_12QrzXmlConfig19from_value_providerNCNvB2_8from_env0EB9_
FNDA:0,_RINvNtNtCsgPbJLsevrBc_14qsoripper_core6lookup7qrz_xml14optional_valueNCNvMs_B2_NtB2_12QrzXmlConfig8from_env0EB6_
FNDA:0,_RINvNtNtCsgPbJLsevrBc_14qsoripper_core6lookup7qrz_xml14required_valueNCNvMs_B2_NtB2_12QrzXmlConfig8from_env0EB6_
FNDA:0,_RINvNtNtCsgPbJLsevrBc_14qsoripper_core6lookup7qrz_xml18optional_value_u32NCNvMs_B2_NtB2_12QrzXmlConfig8from_env0EB6_
FNDA:0,_RINvNtNtCsgPbJLsevrBc_14qsoripper_core6lookup7qrz_xml18optional_value_u64NCNvMs_B2_NtB2_12QrzXmlConfig8from_env0EB6_
FNDA:0,_RINvNtNtCsgPbJLsevrBc_14qsoripper_core6lookup7qrz_xml19optional_value_boolNCNvMs_B2_NtB2_12QrzXmlConfig8from_env0EB6_
FNDA:0,_RNCINvMs_NtNtCsgPbJLsevrBc_14qsoripper_core6lookup7qrz_xmlNtB7_12QrzXmlConfig19from_value_providerNCNvB4_8from_env0E0Bb_
FNDA:0,_RNCINvNtNtCsgPbJLsevrBc_14qsoripper_core6lookup7qrz_xml14optional_valueNCNvMs_B4_NtB4_12QrzXmlConfig8from_env0E0B8_
FNDA:0,_RNCINvNtNtCsgPbJLsevrBc_14qsoripper_core6lookup7qrz_xml18optional_value_u32NCNvMs_B4_NtB4_12QrzXmlConfig8from_env0E0B8_
FNDA:0,_RNCINvNtNtCsgPbJLsevrBc_14qsoripper_core6lookup7qrz_xml18optional_value_u64NCNvMs_B4_NtB4_12QrzXmlConfig8from_env0E0B8_
FNDA:0,_RNCNCNvMs0_NtNtCsgPbJLsevrBc_14qsoripper_core6lookup7qrz_xmlNtB9_14QrzXmlProvider12send_request00Bd_
FNDA:0,_RNCNCNvMs0_NtNtCsgPbJLsevrBc_14qsoripper_core6lookup7qrz_xmlNtB9_14QrzXmlProvider12send_request0s0_0Bd_
FNDA:0,_RNCNCNvMs0_NtNtCsgPbJLsevrBc_14qsoripper_core6lookup7qrz_xmlNtB9_14QrzXmlProvider12send_request0s_0Bd_
FNDA:0,_RNCNCNvMs0_NtNtCsgPbJLsevrBc_14qsoripper_core6lookup7qrz_xmlNtB9_14QrzXmlProvider16request_database00Bd_
FNDA:0,_RNCNCNvMs0_NtNtCsgPbJLsevrBc_14qsoripper_core6lookup7qrz_xmlNtB9_14QrzXmlProvider5login00Bd_
FNDA:0,_RNCNCNvMs0_NtNtCsgPbJLsevrBc_14qsoripper_core6lookup7qrz_xmlNtB9_14QrzXmlProvider5login0s_0Bd_
FNDA:0,_RNCNCNvNtNtCsgPbJLsevrBc_14qsoripper_core6lookup7qrz_xml13parse_aliases00B9_
FNDA:0,_RNCNCNvXs6_NtNtCsgPbJLsevrBc_14qsoripper_core6lookup7qrz_xmlNtB9_14QrzXmlProviderNtNtBb_8provider16CallsignProvider15lookup_callsign00Bd_
FNDA:0,_RNCNCNvXs6_NtNtCsgPbJLsevrBc_14qsoripper_core6lookup7qrz_xmlNtB9_14QrzXmlProviderNtNtBb_8provider16CallsignProvider15lookup_callsign0s0_0Bd_
FNDA:0,_RNCNCNvXs6_NtNtCsgPbJLsevrBc_14qsoripper_core6lookup7qrz_xmlNtB9_14QrzXmlProviderNtNtBb_8provider16CallsignProvider15lookup_callsign0s1_0Bd_
FNDA:0,_RNCNCNvXs6_NtNtCsgPbJLsevrBc_14qsoripper_core6lookup7qrz_xmlNtB9_14QrzXmlProviderNtNtBb_8provider16CallsignProvider15lookup_callsign0s_0Bd_
FNDA:0,_RNCNvMs0_NtNtCsgPbJLsevrBc_14qsoripper_core6lookup7qrz_xmlNtB7_14QrzXmlProvider12send_request0Bb_
FNDA:0,_RNCNvMs0_NtNtCsgPbJLsevrBc_14qsoripper_core6lookup7qrz_xmlNtB7_14QrzXmlProvider16request_database0Bb_
FNDA:0,_RNCNvMs0_NtNtCsgPbJLsevrBc_14qsoripper_core6lookup7qrz_xmlNtB7_14QrzXmlProvider17clear_session_key0Bb_
FNDA:0,_RNCNvMs0_NtNtCsgPbJLsevrBc_14qsoripper_core6lookup7qrz_xmlNtB7_14QrzXmlProvider17store_session_key0Bb_
FNDA:0,_RNCNvMs0_NtNtCsgPbJLsevrBc_14qsoripper_core6lookup7qrz_xmlNtB7_14QrzXmlProvider18ensure_session_key0Bb_
FNDA:0,_RNCNvMs0_NtNtCsgPbJLsevrBc_14qsoripper_core6lookup7qrz_xmlNtB7_14QrzXmlProvider23capture_request_message0Bb_
FNDA:0,_RNCNvMs0_NtNtCsgPbJLsevrBc_14qsoripper_core6lookup7qrz_xmlNtB7_14QrzXmlProvider3new0Bb_
FNDA:0,_RNCNvMs0_NtNtCsgPbJLsevrBc_14qsoripper_core6lookup7qrz_xmlNtB7_14QrzXmlProvider5login0Bb_
FNDA:0,_RNCNvMs_NtNtCsgPbJLsevrBc_14qsoripper_core6lookup7qrz_xmlNtB6_12QrzXmlConfig8from_env0Ba_
FNDA:0,_RNCNvNtNtCsgPbJLsevrBc_14qsoripper_core6lookup7qrz_xml13parse_aliases0B7_
FNDA:0,_RNCNvNtNtCsgPbJLsevrBc_14qsoripper_core6lookup7qrz_xml15capture_headers0B7_
FNDA:0,_RNCNvNtNtCsgPbJLsevrBc_14qsoripper_core6lookup7qrz_xml15capture_headerss_0B7_
FNDA:0,_RNCNvNtNtCsgPbJLsevrBc_14qsoripper_core6lookup7qrz_xml16parse_gmt_offset0B7_
FNDA:0,_RNCNvNtNtCsgPbJLsevrBc_14qsoripper_core6lookup7qrz_xml17value_diagnostics0B7_
FNDA:0,_RNCNvNtNtCsgPbJLsevrBc_14qsoripper_core6lookup7qrz_xml17value_diagnosticss_0B7_
FNDA:0,_RNCNvNtNtCsgPbJLsevrBc_14qsoripper_core6lookup7qrz_xml18redact_request_url0B7_
FNDA:0,_RNCNvNtNtCsgPbJLsevrBc_14qsoripper_core6lookup7qrz_xml19map_callsign_record0B7_
FNDA:0,_RNCNvNtNtCsgPbJLsevrBc_14qsoripper_core6lookup7qrz_xml19map_callsign_records_0B7_
FNDA:0,_RNvMs0_NtNtCsgPbJLsevrBc_14qsoripper_core6lookup7qrz_xmlNtB5_14QrzXmlProvider12send_request
FNDA:0,_RNvMs0_NtNtCsgPbJLsevrBc_14qsoripper_core6lookup7qrz_xmlNtB5_14QrzXmlProvider16request_database
FNDA:0,_RNvMs0_NtNtCsgPbJLsevrBc_14qsoripper_core6lookup7qrz_xmlNtB5_14QrzXmlProvider17clear_session_key
FNDA:0,_RNvMs0_NtNtCsgPbJLsevrBc_14qsoripper_core6lookup7qrz_xmlNtB5_14QrzXmlProvider17store_session_key
FNDA:0,_RNvMs0_NtNtCsgPbJLsevrBc_14qsoripper_core6lookup7qrz_xmlNtB5_14QrzXmlProvider18ensure_session_key
FNDA:0,_RNvMs0_NtNtCsgPbJLsevrBc_14qsoripper_core6lookup7qrz_xmlNtB5_14QrzXmlProvider23capture_request_message
FNDA:2,_RNvMs0_NtNtCsgPbJLsevrBc_14qsoripper_core6lookup7qrz_xmlNtB5_14QrzXmlProvider3new
FNDA:0,_RNvMs0_NtNtCsgPbJLsevrBc_14qsoripper_core6lookup7qrz_xmlNtB5_14QrzXmlProvider5login
FNDA:2,_RNvMs_NtNtCsgPbJLsevrBc_14qsoripper_core6lookup7qrz_xmlNtB4_12QrzXmlConfig12capture_only
FNDA:2,_RNvMs_NtNtCsgPbJLsevrBc_14qsoripper_core6lookup7qrz_xmlNtB4_12QrzXmlConfig8base_url
FNDA:0,_RNvMs_NtNtCsgPbJLsevrBc_14qsoripper_core6lookup7qrz_xmlNtB4_12QrzXmlConfig8from_env
FNDA:0,_RNvNtNtCsgPbJLsevrBc_14qsoripper_core6lookup7qrz_xml11retry_delay
FNDA:0,_RNvNtNtCsgPbJLsevrBc_14qsoripper_core6lookup7qrz_xml12parse_yes_no
FNDA:0,_RNvNtNtCsgPbJLsevrBc_14qsoripper_core6lookup7qrz_xml13is_auth_error
FNDA:0,_RNvNtNtCsgPbJLsevrBc_14qsoripper_core6lookup7qrz_xml13parse_aliases
FNDA:0,_RNvNtNtCsgPbJLsevrBc_14qsoripper_core6lookup7qrz_xml14map_geo_source
FNDA:0,_RNvNtNtCsgPbJLsevrBc_14qsoripper_core6lookup7qrz_xml15capture_headers
FNDA:0,_RNvNtNtCsgPbJLsevrBc_14qsoripper_core6lookup7qrz_xml15optional_string
FNDA:0,_RNvNtNtCsgPbJLsevrBc_14qsoripper_core6lookup7qrz_xml16parse_bio_length
FNDA:0,_RNvNtNtCsgPbJLsevrBc_14qsoripper_core6lookup7qrz_xml16parse_gmt_offset
FNDA:0,_RNvNtNtCsgPbJLsevrBc_14qsoripper_core6lookup7qrz_xml17mask_header_value
FNDA:0,_RNvNtNtCsgPbJLsevrBc_14qsoripper_core6lookup7qrz_xml17value_diagnostics
FNDA:0,_RNvNtNtCsgPbJLsevrBc_14qsoripper_core6lookup7qrz_xml18is_not_found_error
FNDA:0,_RNvNtNtCsgPbJLsevrBc_14qsoripper_core6lookup7qrz_xml18map_qsl_preference
FNDA:0,_RNvNtNtCsgPbJLsevrBc_14qsoripper_core6lookup7qrz_xml18mask_capture_value
FNDA:2,_RNvNtNtCsgPbJLsevrBc_14qsoripper_core6lookup7qrz_xml18normalize_base_url
FNDA:0,_RNvNtNtCsgPbJLsevrBc_14qsoripper_core6lookup7qrz_xml18redact_request_url
FNDA:0,_RNvNtNtCsgPbJLsevrBc_14qsoripper_core6lookup7qrz_xml19map_callsign_record
FNDA:0,_RNvNtNtCsgPbJLsevrBc_14qsoripper_core6lookup7qrz_xml20parse_date_timestamp
FNDA:0,_RNvNtNtCsgPbJLsevrBc_14qsoripper_core6lookup7qrz_xml20render_capture_query
FNDA:0,_RNvNtNtCsgPbJLsevrBc_14qsoripper_core6lookup7qrz_xml22duration_to_millis_u32
FNDA:0,_RNvNtNtCsgPbJLsevrBc_14qsoripper_core6lookup7qrz_xml22is_sensitive_query_key
FNDA:0,_RNvNtNtCsgPbJLsevrBc_14qsoripper_core6lookup7qrz_xml23redact_qrz_xml_response
FNDA:0,_RNvNtNtCsgPbJLsevrBc_14qsoripper_core6lookup7qrz_xml23redact_xml_tag_contents
FNDA:0,_RNvNtNtCsgPbJLsevrBc_14qsoripper_core6lookup7qrz_xml24is_sensitive_header_name
FNDA:0,_RNvNtNtCsgPbJLsevrBc_14qsoripper_core6lookup7qrz_xml24parse_datetime_timestamp
FNDA:0,_RNvNtNtCsgPbJLsevrBc_14qsoripper_core6lookup7qrz_xml24system_time_to_timestamp
FNDA:0,_RNvNtNtCsgPbJLsevrBc_14qsoripper_core6lookup7qrz_xml27is_connection_refused_error
FNDA:0,_RNvNtNtCsgPbJLsevrBc_14qsoripper_core6lookup7qrz_xml28is_retryable_transport_error
FNDA:0,_RNvNtNtCsgPbJLsevrBc_14qsoripper_core6lookup7qrz_xml9parse_f64
FNDA:0,_RNvNtNtCsgPbJLsevrBc_14qsoripper_core6lookup7qrz_xml9parse_u32
FNDA:0,_RNvNtNtCsgPbJLsevrBc_14qsoripper_core6lookup7qrz_xml9parse_u64
FNDA:0,_RNvXNtNtCsgPbJLsevrBc_14qsoripper_core6lookup7qrz_xmlNtB2_12QrzXmlConfigNtNtCs5cb5cxfFw7H_4core3fmt5Debug3fmt
FNDA:0,_RNvXs6_NtNtCsgPbJLsevrBc_14qsoripper_core6lookup7qrz_xmlNtB5_14QrzXmlProviderNtNtB7_8provider16CallsignProvider15lookup_callsign
FNDA:0,_RNvMs_NtNtCs5kss5fdZ6xS_14qsoripper_core6lookup7qrz_xmlNtB4_12QrzXmlConfig12capture_only
FNDA:0,_RNvMs_NtNtCs5kss5fdZ6xS_14qsoripper_core6lookup7qrz_xmlNtB4_12QrzXmlConfig8base_url
FNDA:12,_RNvMs0_NtNtCs5kss5fdZ6xS_14qsoripper_core6lookup7qrz_xmlNtB5_14QrzXmlProvider12send_request
FNDA:12,_RNvMs0_NtNtCs5kss5fdZ6xS_14qsoripper_core6lookup7qrz_xmlNtB5_14QrzXmlProvider16request_database
FNDA:2,_RNvMs0_NtNtCs5kss5fdZ6xS_14qsoripper_core6lookup7qrz_xmlNtB5_14QrzXmlProvider17clear_session_key
FNDA:8,_RNvMs0_NtNtCs5kss5fdZ6xS_14qsoripper_core6lookup7qrz_xmlNtB5_14QrzXmlProvider17store_session_key
FNDA:7,_RNvMs0_NtNtCs5kss5fdZ6xS_14qsoripper_core6lookup7qrz_xmlNtB5_14QrzXmlProvider18ensure_session_key
FNDA:1,_RNvMs0_NtNtCs5kss5fdZ6xS_14qsoripper_core6lookup7qrz_xmlNtB5_14QrzXmlProvider23capture_request_message
FNDA:6,_RNvMs0_NtNtCs5kss5fdZ6xS_14qsoripper_core6lookup7qrz_xmlNtB5_14QrzXmlProvider3new
FNDA:7,_RNvMs0_NtNtCs5kss5fdZ6xS_14qsoripper_core6lookup7qrz_xmlNtB5_14QrzXmlProvider5login
FNDA:2,_RNvMs_NtNtCs5kss5fdZ6xS_14qsoripper_core6lookup7qrz_xmlNtB4_12QrzXmlConfig8from_env
FNDA:0,_RNvNtNtCs5kss5fdZ6xS_14qsoripper_core6lookup7qrz_xml11retry_delay
FNDA:3,_RNvNtNtCs5kss5fdZ6xS_14qsoripper_core6lookup7qrz_xml12parse_yes_no
FNDA:0,_RNvNtNtCs5kss5fdZ6xS_14qsoripper_core6lookup7qrz_xml13is_auth_error
FNDA:3,_RNvNtNtCs5kss5fdZ6xS_14qsoripper_core6lookup7qrz_xml13parse_aliases
FNDA:3,_RNvNtNtCs5kss5fdZ6xS_14qsoripper_core6lookup7qrz_xml14map_geo_source
FNDA:23,_RNvNtNtCs5kss5fdZ6xS_14qsoripper_core6lookup7qrz_xml15capture_headers
FNDA:81,_RNvNtNtCs5kss5fdZ6xS_14qsoripper_core6lookup7qrz_xml15optional_string
FNDA:3,_RNvNtNtCs5kss5fdZ6xS_14qsoripper_core6lookup7qrz_xml16parse_bio_length
FNDA:4,_RNvNtNtCs5kss5fdZ6xS_14qsoripper_core6lookup7qrz_xml16parse_gmt_offset
FNDA:33,_RNvNtNtCs5kss5fdZ6xS_14qsoripper_core6lookup7qrz_xml17mask_header_value
FNDA:4,_RNvNtNtCs5kss5fdZ6xS_14qsoripper_core6lookup7qrz_xml17value_diagnostics
FNDA:5,_RNvNtNtCs5kss5fdZ6xS_14qsoripper_core6lookup7qrz_xml18is_not_found_error
FNDA:9,_RNvNtNtCs5kss5fdZ6xS_14qsoripper_core6lookup7qrz_xml18map_qsl_preference
FNDA:34,_RNvNtNtCs5kss5fdZ6xS_14qsoripper_core6lookup7qrz_xml18mask_capture_value
FNDA:1,_RNvNtNtCs5kss5fdZ6xS_14qsoripper_core6lookup7qrz_xml18normalize_base_url
FNDA:13,_RNvNtNtCs5kss5fdZ6xS_14qsoripper_core6lookup7qrz_xml18redact_request_url
FNDA:3,_RNvNtNtCs5kss5fdZ6xS_14qsoripper_core6lookup7qrz_xml19map_callsign_record
FNDA:6,_RNvNtNtCs5kss5fdZ6xS_14qsoripper_core6lookup7qrz_xml20parse_date_timestamp
FNDA:4,_RNvNtNtCs5kss5fdZ6xS_14qsoripper_core6lookup7qrz_xml20render_capture_query
FNDA:12,_RNvNtNtCs5kss5fdZ6xS_14qsoripper_core6lookup7qrz_xml22duration_to_millis_u32
FNDA:42,_RNvNtNtCs5kss5fdZ6xS_14qsoripper_core6lookup7qrz_xml22is_sensitive_query_key
FNDA:12,_RNvNtNtCs5kss5fdZ6xS_14qsoripper_core6lookup7qrz_xml23redact_qrz_xml_response
FNDA:12,_RNvNtNtCs5kss5fdZ6xS_14qsoripper_core6lookup7qrz_xml23redact_xml_tag_contents
FNDA:33,_RNvNtNtCs5kss5fdZ6xS_14qsoripper_core6lookup7qrz_xml24is_sensitive_header_name
FNDA:3,_RNvNtNtCs5kss5fdZ6xS_14qsoripper_core6lookup7qrz_xml24parse_datetime_timestamp
FNDA:12,_RNvNtNtCs5kss5fdZ6xS_14qsoripper_core6lookup7qrz_xml24system_time_to_timestamp
FNDA:0,_RNvNtNtCs5kss5fdZ6xS_14qsoripper_core6lookup7qrz_xml27is_connection_refused_error
FNDA:0,_RNvNtNtCs5kss5fdZ6xS_14qsoripper_core6lookup7qrz_xml28is_retryable_transport_error
FNDA:6,_RNvNtNtCs5kss5fdZ6xS_14qsoripper_core6lookup7qrz_xml9parse_f64
FNDA:18,_RNvNtNtCs5kss5fdZ6xS_14qsoripper_core6lookup7qrz_xml9parse_u32
FNDA:3,_RNvNtNtCs5kss5fdZ6xS_14qsoripper_core6lookup7qrz_xml9parse_u64
FNDA:0,_RNvXNtNtCs5kss5fdZ6xS_14qsoripper_core6lookup7qrz_xmlNtB2_12QrzXmlConfigNtNtCs5cb5cxfFw7H_4core3fmt5Debug3fmt
FNDA:6,_RNvXs6_NtNtCs5kss5fdZ6xS_14qsoripper_core6lookup7qrz_xmlNtB5_14QrzXmlProviderNtNtB7_8provider16CallsignProvider15lookup_callsign
FNDA:9,_RNvNtNtNtCs5kss5fdZ6xS_14qsoripper_core6lookup7qrz_xml5tests11restore_env
FNDA:6,_RNvNtNtNtCs5kss5fdZ6xS_14qsoripper_core6lookup7qrz_xml5tests11test_config
FNDA:5,_RNvNtNtNtCs5kss5fdZ6xS_14qsoripper_core6lookup7qrz_xml5tests16spawn_qrz_server
FNDA:11,_RNvNtNtNtCs5kss5fdZ6xS_14qsoripper_core6lookup7qrz_xml5tests17read_http_request
FNDA:11,_RNvNtNtNtCs5kss5fdZ6xS_14qsoripper_core6lookup7qrz_xml5tests19write_http_response
FNDA:2,_RNvNtNtNtCs5kss5fdZ6xS_14qsoripper_core6lookup7qrz_xml5tests8env_lock
FNDA:1,_RNvNtNtNtCs5kss5fdZ6xS_14qsoripper_core6lookup7qrz_xml5testss_37parse_gmt_offset_supports_hhmm_format
FNDA:1,_RNvNtNtNtCs5kss5fdZ6xS_14qsoripper_core6lookup7qrz_xml5testss_41qrz_callsign_payload_maps_to_proto_record
FNDA:1,_RNvNtNtNtCs5kss5fdZ6xS_14qsoripper_core6lookup7qrz_xml5testss_42capture_rendering_redacts_sensitive_values
FNDA:1,_RNvNtNtNtCs5kss5fdZ6xS_14qsoripper_core6lookup7qrz_xml5testss_45not_found_error_detection_is_case_insensitive
FNDA:1,_RNvNtNtNtCs5kss5fdZ6xS_14qsoripper_core6lookup7qrz_xml5testss_45qrz_config_rejects_invalid_capture_only_value
FNDA:1,_RNvNtNtNtCs5kss5fdZ6xS_14qsoripper_core6lookup7qrz_xml5testss_46qrz_config_supports_capture_only_flag_from_env
FNDA:1,_RNvNtNtNtCs5kss5fdZ6xS_14qsoripper_core6lookup7qrz_xml5testss_49response_redaction_masks_unterminated_session_key
FNDA:1,_RNvNtNtNtCs5kss5fdZ6xS_14qsoripper_core6lookup7qrz_xml5testss_50lookup_callsign_retries_after_session_timeout_once
FNDA:1,_RNvNtNtNtCs5kss5fdZ6xS_14qsoripper_core6lookup7qrz_xml5testss_51lookup_callsign_logs_in_then_queries_by_session_key
FNDA:1,_RNvNtNtNtCs5kss5fdZ6xS_14qsoripper_core6lookup7qrz_xml5testss_54capture_only_mode_returns_redacted_request_diagnostics
FNDA:1,_RNvNtNtNtCs5kss5fdZ6xS_14qsoripper_core6lookup7qrz_xml5testss_54lookup_callsign_surfaces_login_authentication_failures
FNDA:1,_RNvNtNtNtCs5kss5fdZ6xS_14qsoripper_core6lookup7qrz_xml5testss_60lookup_callsign_returns_not_found_when_qrz_keeps_session_key
FNDA:1,_RNvNtNtNtCs5kss5fdZ6xS_14qsoripper_core6lookup7qrz_xml5testss_62lookup_failure_after_login_preserves_login_and_lookup_captures
FNDA:1,_RNvNtNtNtCs5kss5fdZ6xS_14qsoripper_core6lookup7qrz_xml5testss_65sensitive_query_detection_catches_qrz_session_and_password_fields
FNDA:5,_RNCNCNvNtNtNtCs5kss5fdZ6xS_14qsoripper_core6lookup7qrz_xml5tests16spawn_qrz_server00Bb_
FNDA:1755,_RNCNCNvNtNtNtCs5kss5fdZ6xS_14qsoripper_core6lookup7qrz_xml5tests17read_http_request00Bb_
FNDA:5,_RNCNvNtNtNtCs5kss5fdZ6xS_14qsoripper_core6lookup7qrz_xml5tests16spawn_qrz_server0B9_
FNDA:11,_RNCNvNtNtNtCs5kss5fdZ6xS_14qsoripper_core6lookup7qrz_xml5tests17read_http_request0B9_
FNDA:11,_RNCNvNtNtNtCs5kss5fdZ6xS_14qsoripper_core6lookup7qrz_xml5tests19write_http_response0B9_
FNDA:1,_RNCNvNtNtNtCs5kss5fdZ6xS_14qsoripper_core6lookup7qrz_xml5tests8env_lock0B9_
FNDA:1,_RNCNvNtNtNtCs5kss5fdZ6xS_14qsoripper_core6lookup7qrz_xml5testss_50lookup_callsign_retries_after_session_timeout_once0B9_
FNDA:1,_RNCNvNtNtNtCs5kss5fdZ6xS_14qsoripper_core6lookup7qrz_xml5testss_51lookup_callsign_logs_in_then_queries_by_session_key0B9_
FNDA:1,_RNCNvNtNtNtCs5kss5fdZ6xS_14qsoripper_core6lookup7qrz_xml5testss_54capture_only_mode_returns_redacted_request_diagnostics0B9_
FNDA:1,_RNCNvNtNtNtCs5kss5fdZ6xS_14qsoripper_core6lookup7qrz_xml5testss_54lookup_callsign_surfaces_login_authentication_failures0B9_
FNDA:1,_RNCNvNtNtNtCs5kss5fdZ6xS_14qsoripper_core6lookup7qrz_xml5testss_60lookup_callsign_returns_not_found_when_qrz_keeps_session_key0B9_
FNDA:1,_RNCNvNtNtNtCs5kss5fdZ6xS_14qsoripper_core6lookup7qrz_xml5testss_62lookup_failure_after_login_preserves_login_and_lookup_captures0B9_
FNDA:2,_RINvMs_NtNtCs5kss5fdZ6xS_14qsoripper_core6lookup7qrz_xmlNtB5_12QrzXmlConfig19from_value_providerNCNvB2_8from_env0EB9_
FNDA:2,_RINvNtNtCs5kss5fdZ6xS_14qsoripper_core6lookup7qrz_xml14optional_valueNCNvMs_B2_NtB2_12QrzXmlConfig8from_env0EB6_
FNDA:6,_RINvNtNtCs5kss5fdZ6xS_14qsoripper_core6lookup7qrz_xml14required_valueNCNvMs_B2_NtB2_12QrzXmlConfig8from_env0EB6_
FNDA:2,_RINvNtNtCs5kss5fdZ6xS_14qsoripper_core6lookup7qrz_xml18optional_value_u32NCNvMs_B2_NtB2_12QrzXmlConfig8from_env0EB6_
FNDA:2,_RINvNtNtCs5kss5fdZ6xS_14qsoripper_core6lookup7qrz_xml18optional_value_u64NCNvMs_B2_NtB2_12QrzXmlConfig8from_env0EB6_
FNDA:2,_RINvNtNtCs5kss5fdZ6xS_14qsoripper_core6lookup7qrz_xml19optional_value_boolNCNvMs_B2_NtB2_12QrzXmlConfig8from_env0EB6_
FNDA:1,_RNCINvMs_NtNtCs5kss5fdZ6xS_14qsoripper_core6lookup7qrz_xmlNtB7_12QrzXmlConfig19from_value_providerNCNvB4_8from_env0E0Bb_
FNDA:1,_RNCINvNtNtCs5kss5fdZ6xS_14qsoripper_core6lookup7qrz_xml14optional_valueNCNvMs_B4_NtB4_12QrzXmlConfig8from_env0E0B8_
FNDA:0,_RNCINvNtNtCs5kss5fdZ6xS_14qsoripper_core6lookup7qrz_xml18optional_value_u32NCNvMs_B4_NtB4_12QrzXmlConfig8from_env0E0B8_
FNDA:0,_RNCINvNtNtCs5kss5fdZ6xS_14qsoripper_core6lookup7qrz_xml18optional_value_u64NCNvMs_B4_NtB4_12QrzXmlConfig8from_env0E0B8_
FNDA:0,_RNCNCNvMs0_NtNtCs5kss5fdZ6xS_14qsoripper_core6lookup7qrz_xmlNtB9_14QrzXmlProvider12send_request00Bd_
FNDA:0,_RNCNCNvMs0_NtNtCs5kss5fdZ6xS_14qsoripper_core6lookup7qrz_xmlNtB9_14QrzXmlProvider12send_request0s0_0Bd_
FNDA:0,_RNCNCNvMs0_NtNtCs5kss5fdZ6xS_14qsoripper_core6lookup7qrz_xmlNtB9_14QrzXmlProvider12send_request0s_0Bd_
FNDA:1,_RNCNCNvMs0_NtNtCs5kss5fdZ6xS_14qsoripper_core6lookup7qrz_xmlNtB9_14QrzXmlProvider16request_database00Bd_
FNDA:0,_RNCNCNvMs0_NtNtCs5kss5fdZ6xS_14qsoripper_core6lookup7qrz_xmlNtB9_14QrzXmlProvider5login00Bd_
FNDA:0,_RNCNCNvMs0_NtNtCs5kss5fdZ6xS_14qsoripper_core6lookup7qrz_xmlNtB9_14QrzXmlProvider5login0s_0Bd_
FNDA:6,_RNCNCNvNtNtCs5kss5fdZ6xS_14qsoripper_core6lookup7qrz_xml13parse_aliases00B9_
FNDA:2,_RNCNCNvXs6_NtNtCs5kss5fdZ6xS_14qsoripper_core6lookup7qrz_xmlNtB9_14QrzXmlProviderNtNtBb_8provider16CallsignProvider15lookup_callsign00Bd_
FNDA:0,_RNCNCNvXs6_NtNtCs5kss5fdZ6xS_14qsoripper_core6lookup7qrz_xmlNtB9_14QrzXmlProviderNtNtBb_8provider16CallsignProvider15lookup_callsign0s0_0Bd_
FNDA:0,_RNCNCNvXs6_NtNtCs5kss5fdZ6xS_14qsoripper_core6lookup7qrz_xmlNtB9_14QrzXmlProviderNtNtBb_8provider16CallsignProvider15lookup_callsign0s1_0Bd_
FNDA:1,_RNCNCNvXs6_NtNtCs5kss5fdZ6xS_14qsoripper_core6lookup7qrz_xmlNtB9_14QrzXmlProviderNtNtBb_8provider16CallsignProvider15lookup_callsign0s_0Bd_
FNDA:12,_RNCNvMs0_NtNtCs5kss5fdZ6xS_14qsoripper_core6lookup7qrz_xmlNtB7_14QrzXmlProvider12send_request0Bb_
FNDA:12,_RNCNvMs0_NtNtCs5kss5fdZ6xS_14qsoripper_core6lookup7qrz_xmlNtB7_14QrzXmlProvider16request_database0Bb_
FNDA:2,_RNCNvMs0_NtNtCs5kss5fdZ6xS_14qsoripper_core6lookup7qrz_xmlNtB7_14QrzXmlProvider17clear_session_key0Bb_
FNDA:8,_RNCNvMs0_NtNtCs5kss5fdZ6xS_14qsoripper_core6lookup7qrz_xmlNtB7_14QrzXmlProvider17store_session_key0Bb_
FNDA:7,_RNCNvMs0_NtNtCs5kss5fdZ6xS_14qsoripper_core6lookup7qrz_xmlNtB7_14QrzXmlProvider18ensure_session_key0Bb_
FNDA:3,_RNCNvMs0_NtNtCs5kss5fdZ6xS_14qsoripper_core6lookup7qrz_xmlNtB7_14QrzXmlProvider23capture_request_message0Bb_
FNDA:0,_RNCNvMs0_NtNtCs5kss5fdZ6xS_14qsoripper_core6lookup7qrz_xmlNtB7_14QrzXmlProvider3new0Bb_
FNDA:7,_RNCNvMs0_NtNtCs5kss5fdZ6xS_14qsoripper_core6lookup7qrz_xmlNtB7_14QrzXmlProvider5login0Bb_
FNDA:14,_RNCNvMs_NtNtCs5kss5fdZ6xS_14qsoripper_core6lookup7qrz_xmlNtB6_12QrzXmlConfig8from_env0Ba_
FNDA:3,_RNCNvNtNtCs5kss5fdZ6xS_14qsoripper_core6lookup7qrz_xml13parse_aliases0B7_
FNDA:33,_RNCNvNtNtCs5kss5fdZ6xS_14qsoripper_core6lookup7qrz_xml15capture_headers0B7_
FNDA:33,_RNCNvNtNtCs5kss5fdZ6xS_14qsoripper_core6lookup7qrz_xml15capture_headerss_0B7_
FNDA:4,_RNCNvNtNtCs5kss5fdZ6xS_14qsoripper_core6lookup7qrz_xml16parse_gmt_offset0B7_
FNDA:4,_RNCNvNtNtCs5kss5fdZ6xS_14qsoripper_core6lookup7qrz_xml17value_diagnostics0B7_
FNDA:4,_RNCNvNtNtCs5kss5fdZ6xS_14qsoripper_core6lookup7qrz_xml17value_diagnosticss_0B7_
FNDA:34,_RNCNvNtNtCs5kss5fdZ6xS_14qsoripper_core6lookup7qrz_xml18redact_request_url0B7_
FNDA:0,_RNCNvNtNtCs5kss5fdZ6xS_14qsoripper_core6lookup7qrz_xml19map_callsign_record0B7_
FNDA:0,_RNCNvNtNtCs5kss5fdZ6xS_14qsoripper_core6lookup7qrz_xml19map_callsign_records_0B7_
FNDA:53,_RINvMs_NtNtCsgPbJLsevrBc_14qsoripper_core6lookup7qrz_xmlNtB5_12QrzXmlConfig19from_value_providerNCNvNtCsujLUsjorcV_16qsoripper_server14runtime_config21build_lookup_provider0EB1C_
FNDA:53,_RINvNtNtCsgPbJLsevrBc_14qsoripper_core6lookup7qrz_xml14optional_valueNCNvNtCsujLUsjorcV_16qsoripper_server14runtime_config21build_lookup_provider0EB1b_
FNDA:65,_RINvNtNtCsgPbJLsevrBc_14qsoripper_core6lookup7qrz_xml14required_valueNCNvNtCsujLUsjorcV_16qsoripper_server14runtime_config21build_lookup_provider0EB1b_
FNDA:2,_RINvNtNtCsgPbJLsevrBc_14qsoripper_core6lookup7qrz_xml18optional_value_u32NCNvNtCsujLUsjorcV_16qsoripper_server14runtime_config21build_lookup_provider0EB1f_
FNDA:2,_RINvNtNtCsgPbJLsevrBc_14qsoripper_core6lookup7qrz_xml18optional_value_u64NCNvNtCsujLUsjorcV_16qsoripper_server14runtime_config21build_lookup_provider0EB1f_
FNDA:2,_RINvNtNtCsgPbJLsevrBc_14qsoripper_core6lookup7qrz_xml19optional_value_boolNCNvNtCsujLUsjorcV_16qsoripper_server14runtime_config21build_lookup_provider0EB1g_
FNDA:53,_RNCINvMs_NtNtCsgPbJLsevrBc_14qsoripper_core6lookup7qrz_xmlNtB7_12QrzXmlConfig19from_value_providerNCNvNtCsujLUsjorcV_16qsoripper_server14runtime_config21build_lookup_provider0E0B1E_
FNDA:0,_RNCINvNtNtCsgPbJLsevrBc_14qsoripper_core6lookup7qrz_xml14optional_valueNCNvNtCsujLUsjorcV_16qsoripper_server14runtime_config21build_lookup_provider0E0B1d_
FNDA:0,_RNCINvNtNtCsgPbJLsevrBc_14qsoripper_core6lookup7qrz_xml18optional_value_u32NCNvNtCsujLUsjorcV_16qsoripper_server14runtime_config21build_lookup_provider0E0B1h_
FNDA:0,_RNCINvNtNtCsgPbJLsevrBc_14qsoripper_core6lookup7qrz_xml18optional_value_u64NCNvNtCsujLUsjorcV_16qsoripper_server14runtime_config21build_lookup_provider0E0B1h_
FNF:115
FNH:98
DA:59,0
DA:60,0
DA:61,0
DA:62,0
DA:63,0
DA:64,0
DA:65,0
DA:66,0
DA:67,0
DA:68,0
DA:69,0
DA:70,0
DA:91,2
DA:92,14
DA:93,2
DA:104,55
DA:105,55
DA:106,55
DA:108,55
DA:109,55
DA:110,55
DA:111,8
DA:112,8
DA:113,4
DA:116,4
DA:117,0
DA:118,4
DA:121,4
DA:122,0
DA:123,3
DA:124,4
DA:126,3
DA:127,3
DA:128,3
DA:129,3
DA:130,3
DA:131,3
DA:132,3
DA:133,3
DA:134,3
DA:135,55
DA:139,2
DA:140,2
DA:141,2
DA:145,2
DA:146,2
DA:147,2
DA:192,8
DA:193,8
DA:194,8
DA:195,8
DA:196,8
DA:197,8
DA:198,0
DA:199,0
DA:201,0
DA:203,8
DA:204,8
DA:205,8
DA:206,8
DA:207,8
DA:208,8
DA:210,7
DA:211,7
DA:212,7
DA:213,7
DA:214,0
DA:215,7
DA:217,7
DA:218,7
DA:220,7
DA:221,7
DA:222,7
DA:223,7
DA:224,7
DA:225,7
DA:226,7
DA:227,7
DA:228,7
DA:229,7
DA:230,7
DA:232,6
DA:233,0
DA:234,0
DA:235,0
DA:237,0
DA:239,6
DA:240,1
DA:241,1
DA:242,1
DA:243,1
DA:244,5
DA:246,5
DA:247,0
DA:248,0
DA:249,0
DA:251,0
DA:253,5
DA:254,5
DA:255,7
DA:257,8
DA:258,8
DA:259,8
DA:261,2
DA:262,2
DA:263,2
DA:265,12
DA:266,12
DA:267,12
DA:268,12
DA:269,12
DA:271,11
DA:272,11
DA:273,12
DA:274,11
DA:275,1
DA:276,1
DA:277,1
DA:279,1
DA:280,10
DA:281,12
DA:283,1
DA:284,1
DA:285,1
DA:286,3
DA:287,1
DA:288,1
DA:289,1
DA:290,1
DA:291,1
DA:292,1
DA:295,1
DA:301,12
DA:302,12
DA:303,12
DA:304,12
DA:305,12
DA:306,12
DA:307,12
DA:310,12
DA:311,12
DA:312,12
DA:313,12
DA:314,12
DA:315,12
DA:316,0
DA:317,0
DA:319,0
DA:320,12
DA:321,12
DA:322,12
DA:323,12
DA:324,12
DA:325,12
DA:327,12
DA:328,1
DA:329,1
DA:330,1
DA:331,1
DA:332,1
DA:333,1
DA:334,1
DA:335,1
DA:336,1
DA:337,1
DA:338,1
DA:339,1
DA:340,1
DA:341,1
DA:342,1
DA:343,1
DA:344,1
DA:345,1
DA:346,1
DA:347,1
DA:348,11
DA:350,11
DA:351,11
DA:352,11
DA:353,11
DA:354,11
DA:355,11
DA:356,0
DA:357,0
DA:358,0
DA:359,0
DA:360,0
DA:361,0
DA:362,0
DA:363,0
DA:364,0
DA:365,0
DA:366,0
DA:367,0
DA:368,0
DA:369,0
DA:370,0
DA:371,0
DA:372,0
DA:373,0
DA:374,0
DA:375,0
DA:377,0
DA:378,11
DA:379,11
DA:380,11
DA:381,11
DA:382,11
DA:383,11
DA:384,11
DA:385,11
DA:386,11
DA:387,11
DA:388,11
DA:389,11
DA:390,11
DA:391,11
DA:393,11
DA:395,11
DA:396,11
DA:397,11
DA:398,11
DA:399,11
DA:400,0
DA:402,0
DA:403,0
DA:404,0
DA:405,0
DA:406,0
DA:407,0
DA:409,0
DA:410,0
DA:411,0
DA:412,0
DA:413,0
DA:415,0
DA:416,0
DA:417,0
DA:418,0
DA:419,0
DA:421,0
DA:422,0
DA:423,0
DA:424,0
DA:426,0
DA:427,0
DA:428,0
DA:429,0
DA:430,0
DA:431,0
DA:432,0
DA:433,0
DA:434,0
DA:435,0
DA:436,0
DA:437,0
DA:438,0
DA:439,0
DA:440,0
DA:441,0
DA:442,0
DA:444,0
DA:445,0
DA:446,0
DA:447,0
DA:448,0
DA:450,0
DA:451,0
DA:452,0
DA:453,0
DA:457,12
DA:462,6
DA:469,2
DA:470,2
DA:471,2
DA:482,1
DA:483,1
DA:484,1
DA:487,0
DA:488,0
DA:489,0
DA:490,0
DA:492,0
DA:524,0
DA:525,0
DA:526,0
DA:527,0
DA:529,0
DA:536,6
DA:660,3
DA:661,3
DA:662,3
DA:663,3
DA:664,3
DA:665,3
DA:666,3
DA:667,3
DA:668,3
DA:670,3
DA:671,3
DA:672,3
DA:673,3
DA:674,3
DA:675,3
DA:676,3
DA:677,3
DA:678,3
DA:679,3
DA:680,3
DA:681,3
DA:682,3
DA:683,3
DA:684,3
DA:685,3
DA:686,3
DA:687,3
DA:688,3
DA:689,3
DA:690,3
DA:691,3
DA:692,3
DA:693,3
DA:694,3
DA:695,3
DA:696,3
DA:697,3
DA:698,3
DA:699,3
DA:700,3
DA:701,3
DA:702,3
DA:703,3
DA:704,3
DA:705,3
DA:706,3
DA:707,3
DA:708,3
DA:709,3
DA:710,3
DA:711,3
DA:712,3
DA:713,3
DA:714,3
DA:715,3
DA:716,3
DA:717,3
DA:718,3
DA:719,3
DA:720,3
DA:722,71
DA:723,71
DA:724,71
DA:726,71
DA:727,20
DA:728,51
DA:730,71
DA:732,55
DA:733,55
DA:734,55
DA:736,55
DA:737,1
DA:738,1
DA:739,0
DA:741,1
DA:743,1
DA:744,55
DA:746,4
DA:747,4
DA:748,4
DA:749,4
DA:750,4
DA:751,4
DA:752,4
DA:754,4
DA:755,0
DA:756,0
DA:757,0
DA:758,0
DA:759,4
DA:761,4
DA:763,4
DA:764,4
DA:765,4
DA:766,4
DA:767,4
DA:768,4
DA:769,4
DA:771,4
DA:772,0
DA:773,0
DA:774,0
DA:775,0
DA:776,4
DA:778,4
DA:780,4
DA:781,4
DA:782,4
DA:783,4
DA:784,4
DA:785,4
DA:786,4
DA:788,4
DA:789,3
DA:790,3
DA:791,3
DA:792,3
DA:793,1
DA:794,1
DA:797,1
DA:799,4
DA:801,3
DA:802,3
DA:803,2
DA:805,1
DA:807,3
DA:809,0
DA:810,0
DA:811,0
DA:812,0
DA:814,12
DA:815,12
DA:816,12
DA:817,0
DA:819,12
DA:821,0
DA:822,0
DA:823,0
DA:825,5
DA:826,5
DA:827,5
DA:829,0
DA:830,0
DA:831,0
DA:833,0
DA:834,0
DA:835,0
DA:836,0
DA:837,0
DA:838,0
DA:839,0
DA:841,13
DA:842,13
DA:843,13
DA:844,13
DA:845,13
DA:846,34
DA:847,13
DA:848,13
DA:849,13
DA:850,13
DA:851,0
DA:853,13
DA:855,13
DA:857,23
DA:858,23
DA:859,23
DA:860,23
DA:861,33
DA:862,33
DA:863,33
DA:864,23
DA:865,33
DA:866,23
DA:867,23
DA:869,33
DA:870,33
DA:871,0
DA:873,33
DA:875,33
DA:877,33
DA:878,0
DA:879,33
DA:880,33
DA:882,33
DA:884,12
DA:885,12
DA:886,12
DA:888,12
DA:889,12
DA:890,12
DA:891,12
DA:892,12
DA:894,20
DA:895,10
DA:896,10
DA:897,10
DA:899,10
DA:900,10
DA:901,2
DA:902,2
DA:905,8
DA:906,8
DA:907,8
DA:910,10
DA:911,10
DA:912,12
DA:914,12
DA:915,12
DA:916,0
DA:919,12
DA:920,12
DA:921,12
DA:922,12
DA:923,12
DA:925,34
DA:926,34
DA:927,13
DA:929,21
DA:931,34
DA:933,4
DA:934,4
DA:935,4
DA:936,2
DA:938,2
DA:940,4
DA:941,4
DA:949,4
DA:951,42
DA:952,17
DA:953,42
DA:954,42
DA:956,42
DA:958,4
DA:959,4
DA:960,4
DA:961,4
DA:962,4
DA:963,4
DA:964,4
DA:965,4
DA:966,4
DA:967,4
DA:968,4
DA:970,4
DA:971,4
DA:972,4
DA:973,4
DA:974,4
DA:975,4
DA:976,4
DA:977,4
DA:978,4
DA:990,81
DA:991,81
DA:992,36
DA:993,0
DA:995,36
DA:997,81
DA:999,3
DA:1000,3
DA:1001,3
DA:1002,6
DA:1003,3
DA:1004,3
DA:1005,3
DA:1007,18
DA:1008,18
DA:1009,18
DA:1011,3
DA:1012,3
DA:1013,3
DA:1015,6
DA:1016,6
DA:1017,6
DA:1019,3
DA:1020,3
DA:1021,3
DA:1022,0
DA:1023,0
DA:1025,3
DA:1027,6
DA:1028,6
DA:1029,6
DA:1030,6
DA:1031,6
DA:1032,6
DA:1033,6
DA:1034,6
DA:1035,6
DA:1037,3
DA:1038,3
DA:1039,3
DA:1040,3
DA:1041,3
DA:1042,3
DA:1043,3
DA:1044,3
DA:1045,3
DA:1047,3
DA:1048,3
DA:1049,3
DA:1050,3
DA:1051,3
DA:1053,4
DA:1054,4
DA:1055,4
DA:1056,0
DA:1057,4
DA:1059,4
DA:1060,3
DA:1061,1
DA:1062,0
DA:1064,1
DA:1067,4
DA:1068,1
DA:1069,1
DA:1070,1
DA:1071,3
DA:1073,3
DA:1074,4
DA:1076,3
DA:1077,3
DA:1078,3
DA:1079,3
DA:1080,3
DA:1081,3
DA:1083,3
DA:1084,0
DA:1085,0
DA:1086,0
DA:1087,0
DA:1088,0
DA:1089,0
DA:1090,0
DA:1092,3
DA:1094,9
DA:1095,9
DA:1096,9
DA:1097,9
DA:1098,9
DA:1099,9
DA:1101,9
DA:1102,3
DA:1103,0
DA:1105,9
DA:1208,6
DA:1209,6
DA:1210,6
DA:1211,6
DA:1212,6
DA:1213,6
DA:1214,6
DA:1215,6
DA:1216,6
DA:1217,6
DA:1218,6
DA:1220,5
DA:1221,5
DA:1222,5
DA:1223,5
DA:1224,5
DA:1225,5
DA:1226,5
DA:1227,5
DA:1228,5
DA:1229,5
DA:1231,5
DA:1232,16
DA:1233,11
DA:1234,11
DA:1235,11
DA:1236,11
DA:1237,11
DA:1238,11
DA:1239,11
DA:1241,5
DA:1243,5
DA:1244,5
DA:1246,11
DA:1247,11
DA:1248,11
DA:1250,11
DA:1251,11
DA:1252,0
DA:1253,11
DA:1255,11
DA:1256,1755
DA:1257,11
DA:1258,0
DA:1261,11
DA:1262,11
DA:1264,11
DA:1265,11
DA:1266,11
DA:1267,11
DA:1270,11
DA:1271,11
DA:1272,11
DA:1273,11
DA:1274,11
DA:1277,1
DA:1278,1
DA:1279,1
DA:1280,1
DA:1282,1
DA:1283,1
DA:1284,1
DA:1285,1
DA:1286,1
DA:1287,1
DA:1288,1
DA:1289,1
DA:1290,1
DA:1291,1
DA:1292,1
DA:1293,1
DA:1294,1
DA:1297,1
DA:1298,1
DA:1299,1
DA:1300,1
DA:1301,1
DA:1304,1
DA:1305,1
DA:1306,1
DA:1307,1
DA:1310,1
DA:1311,1
DA:1312,1
DA:1314,1
DA:1317,1
DA:1318,1
DA:1319,1
DA:1320,1
DA:1321,1
DA:1322,0
DA:1324,1
DA:1325,1
DA:1326,1
DA:1327,1
DA:1328,1
DA:1329,1
DA:1330,1
DA:1331,1
DA:1332,1
DA:1337,1
DA:1338,1
DA:1339,1
DA:1340,1
DA:1341,1
DA:1342,1
DA:1344,1
DA:1345,1
DA:1346,1
DA:1347,1
DA:1348,1
DA:1349,1
DA:1350,1
DA:1351,1
DA:1352,1
DA:1353,1
DA:1356,1
DA:1357,1
DA:1358,1
DA:1359,1
DA:1360,1
DA:1361,1
DA:1362,1
DA:1363,1
DA:1364,1
DA:1366,1
DA:1368,1
DA:1369,1
DA:1370,1
DA:1371,1
DA:1374,1
DA:1375,1
DA:1376,1
DA:1378,1
DA:1380,1
DA:1381,1
DA:1382,1
DA:1385,1
DA:1386,1
DA:1387,1
DA:1389,1
DA:1390,1
DA:1391,1
DA:1392,1
DA:1394,1
DA:1395,1
DA:1396,1
DA:1397,1
DA:1398,1
DA:1401,1
DA:1402,1
DA:1403,1
DA:1405,1
DA:1406,1
DA:1407,1
DA:1408,1
DA:1410,1
DA:1411,1
DA:1412,1
DA:1413,1
DA:1414,1
DA:1415,1
DA:1416,1
DA:1417,1
DA:1418,1
DA:1419,1
DA:1420,1
DA:1421,1
DA:1422,1
DA:1423,1
DA:1424,1
DA:1425,1
DA:1426,1
DA:1429,1
DA:1430,1
DA:1431,1
DA:1432,1
DA:1434,1
DA:1435,1
DA:1436,1
DA:1437,1
DA:1438,1
DA:1440,1
DA:1441,1
DA:1442,1
DA:1443,1
DA:1444,1
DA:1445,1
DA:1446,1
DA:1447,1
DA:1448,1
DA:1449,1
DA:1450,1
DA:1451,1
DA:1452,1
DA:1455,1
DA:1456,1
DA:1457,1
DA:1458,1
DA:1459,1
DA:1460,1
DA:1461,1
DA:1464,1
DA:1465,1
DA:1466,1
DA:1467,1
DA:1468,1
DA:1471,1
DA:1472,1
DA:1473,1
DA:1474,1
DA:1475,1
DA:1476,1
DA:1477,1
DA:1479,1
DA:1480,1
DA:1481,1
DA:1482,1
DA:1486,1
DA:1488,1
DA:1490,1
DA:1491,1
DA:1493,1
DA:1494,1
DA:1495,1
DA:1496,1
DA:1497,1
DA:1498,1
DA:1501,1
DA:1502,1
DA:1503,1
DA:1504,1
DA:1505,1
DA:1506,1
DA:1508,1
DA:1509,1
DA:1510,1
DA:1511,1
DA:1513,1
DA:1515,1
DA:1517,1
DA:1520,1
DA:1521,1
DA:1522,1
DA:1523,1
DA:1524,1
DA:1527,1
DA:1528,1
DA:1529,1
DA:1530,1
DA:1531,1
DA:1532,1
DA:1534,9
DA:1535,9
DA:1536,0
DA:1537,9
DA:1538,9
DA:1539,9
DA:1540,9
DA:1542,2
DA:1544,2
DA:1545,2
BRF:0
BRH:0
LF:954
LH:782
end_of_record
SF:C:\Users\randy\Git\qsoripper-adif-refresh\src\rust\qsoripper-core\src\storage\error.rs
FN:39,_RINvMNtNtCsgPbJLsevrBc_14qsoripper_core7storage5errorNtB3_12StorageError7backendpEB7_
FN:30,_RINvMNtNtCsgPbJLsevrBc_14qsoripper_core7storage5errorNtB3_12StorageError9duplicatepEB7_
FN:39,_RINvMNtNtCs5kss5fdZ6xS_14qsoripper_core7storage5errorNtB3_12StorageError7backendpEB7_
FN:30,_RINvMNtNtCs5kss5fdZ6xS_14qsoripper_core7storage5errorNtB3_12StorageError9duplicatepEB7_
FN:39,_RINvMNtNtCsgPbJLsevrBc_14qsoripper_core7storage5errorNtB3_12StorageError7backendNtNtCs2ocB3yIIgEv_5alloc6string6StringECs3yFwPKqX78L_24qsoripper_storage_sqlite
FN:39,_RINvMNtNtCsgPbJLsevrBc_14qsoripper_core7storage5errorNtB3_12StorageError7backendReECs3yFwPKqX78L_24qsoripper_storage_sqlite
FN:30,_RINvMNtNtCsgPbJLsevrBc_14qsoripper_core7storage5errorNtB3_12StorageError9duplicateReECs3yFwPKqX78L_24qsoripper_storage_sqlite
FN:39,_RINvMNtNtCsgPbJLsevrBc_14qsoripper_core7storage5errorNtB3_12StorageError7backendReECsdFSXKvCgM1O_24qsoripper_storage_memory
FN:30,_RINvMNtNtCsgPbJLsevrBc_14qsoripper_core7storage5errorNtB3_12StorageError9duplicateRNtNtCs2ocB3yIIgEv_5alloc6string6StringECsdFSXKvCgM1O_24qsoripper_storage_memory
FN:39,_RINvMNtNtCsgPbJLsevrBc_14qsoripper_core7storage5errorNtB3_12StorageError7backendReECsaQT5tdxFSLB_24qsoripper_storage_memory
FN:30,_RINvMNtNtCsgPbJLsevrBc_14qsoripper_core7storage5errorNtB3_12StorageError9duplicateRNtNtCs2ocB3yIIgEv_5alloc6string6StringECsaQT5tdxFSLB_24qsoripper_storage_memory
FN:39,_RINvMNtNtCsgPbJLsevrBc_14qsoripper_core7storage5errorNtB3_12StorageError7backendNtNtCs2ocB3yIIgEv_5alloc6string6StringECslOMEjNOpVly_24qsoripper_storage_sqlite
FN:39,_RINvMNtNtCsgPbJLsevrBc_14qsoripper_core7storage5errorNtB3_12StorageError7backendReECslOMEjNOpVly_24qsoripper_storage_sqlite
FN:30,_RINvMNtNtCsgPbJLsevrBc_14qsoripper_core7storage5errorNtB3_12StorageError9duplicateReECslOMEjNOpVly_24qsoripper_storage_sqlite
FNDA:0,_RINvMNtNtCsgPbJLsevrBc_14qsoripper_core7storage5errorNtB3_12StorageError7backendpEB7_
FNDA:0,_RINvMNtNtCsgPbJLsevrBc_14qsoripper_core7storage5errorNtB3_12StorageError9duplicatepEB7_
FNDA:0,_RINvMNtNtCs5kss5fdZ6xS_14qsoripper_core7storage5errorNtB3_12StorageError7backendpEB7_
FNDA:0,_RINvMNtNtCs5kss5fdZ6xS_14qsoripper_core7storage5errorNtB3_12StorageError9duplicatepEB7_
FNDA:0,_RINvMNtNtCsgPbJLsevrBc_14qsoripper_core7storage5errorNtB3_12StorageError7backendNtNtCs2ocB3yIIgEv_5alloc6string6StringECs3yFwPKqX78L_24qsoripper_storage_sqlite
FNDA:0,_RINvMNtNtCsgPbJLsevrBc_14qsoripper_core7storage5errorNtB3_12StorageError7backendReECs3yFwPKqX78L_24qsoripper_storage_sqlite
FNDA:0,_RINvMNtNtCsgPbJLsevrBc_14qsoripper_core7storage5errorNtB3_12StorageError9duplicateReECs3yFwPKqX78L_24qsoripper_storage_sqlite
FNDA:0,_RINvMNtNtCsgPbJLsevrBc_14qsoripper_core7storage5errorNtB3_12StorageError7backendReECsdFSXKvCgM1O_24qsoripper_storage_memory
FNDA:0,_RINvMNtNtCsgPbJLsevrBc_14qsoripper_core7storage5errorNtB3_12StorageError9duplicateRNtNtCs2ocB3yIIgEv_5alloc6string6StringECsdFSXKvCgM1O_24qsoripper_storage_memory
FNDA:0,_RINvMNtNtCsgPbJLsevrBc_14qsoripper_core7storage5errorNtB3_12StorageError7backendReECsaQT5tdxFSLB_24qsoripper_storage_memory
FNDA:0,_RINvMNtNtCsgPbJLsevrBc_14qsoripper_core7storage5errorNtB3_12StorageError9duplicateRNtNtCs2ocB3yIIgEv_5alloc6string6StringECsaQT5tdxFSLB_24qsoripper_storage_memory
FNDA:0,_RINvMNtNtCsgPbJLsevrBc_14qsoripper_core7storage5errorNtB3_12StorageError7backendNtNtCs2ocB3yIIgEv_5alloc6string6StringECslOMEjNOpVly_24qsoripper_storage_sqlite
FNDA:0,_RINvMNtNtCsgPbJLsevrBc_14qsoripper_core7storage5errorNtB3_12StorageError7backendReECslOMEjNOpVly_24qsoripper_storage_sqlite
FNDA:0,_RINvMNtNtCsgPbJLsevrBc_14qsoripper_core7storage5errorNtB3_12StorageError9duplicateReECslOMEjNOpVly_24qsoripper_storage_sqlite
FNF:2
FNH:0
DA:30,0
DA:31,0
DA:32,0
DA:33,0
DA:34,0
DA:35,0
DA:39,0
DA:40,0
DA:41,0
BRF:0
BRH:0
LF:9
LH:0
end_of_record
SF:C:\Users\randy\Git\qsoripper-adif-refresh\src\rust\qsoripper-core\src\storage\query.rs
FN:30,_RNvXNtNtCs5kss5fdZ6xS_14qsoripper_core7storage5queryNtB2_12QsoListQueryNtNtCs5cb5cxfFw7H_4core7default7Default7default
FN:30,_RNvXNtNtCsgPbJLsevrBc_14qsoripper_core7storage5queryNtB2_12QsoListQueryNtNtCs5cb5cxfFw7H_4core7default7Default7default
FNDA:0,_RNvXNtNtCs5kss5fdZ6xS_14qsoripper_core7storage5queryNtB2_12QsoListQueryNtNtCs5cb5cxfFw7H_4core7default7Default7default
FNDA:15,_RNvXNtNtCsgPbJLsevrBc_14qsoripper_core7storage5queryNtB2_12QsoListQueryNtNtCs5cb5cxfFw7H_4core7default7Default7default
FNF:1
FNH:1
DA:30,15
DA:31,15
DA:32,15
DA:33,15
DA:34,15
DA:35,15
DA:36,15
DA:37,15
DA:38,15
DA:39,15
DA:40,15
DA:41,15
DA:42,15
BRF:0
BRH:0
LF:13
LH:13
end_of_record
SF:C:\Users\randy\Git\qsoripper-adif-refresh\src\rust\qsoripper-server\src\main.rs
FN:43,_RNCNvCsujLUsjorcV_16qsoripper_server4main0B3_
FN:43,_RNvCsujLUsjorcV_16qsoripper_server4main
FN:878,_RNvXs_NtCsujLUsjorcV_16qsoripper_server5testsNtB4_17ProcessStateGuardNtNtNtCs5cb5cxfFw7H_4core3ops4drop4Drop4drop
FN:697,_RNvCsujLUsjorcV_16qsoripper_server10print_help
FN:797,_RNvCsujLUsjorcV_16qsoripper_server11sync_result
FN:703,_RNvCsujLUsjorcV_16qsoripper_server13build_storage
FN:239,_RNvCsujLUsjorcV_16qsoripper_server16find_dotenv_path
FN:788,_RNvCsujLUsjorcV_16qsoripper_server16non_empty_string
FN:726,_RNvCsujLUsjorcV_16qsoripper_server17map_logbook_error
FN:148,_RNvCsujLUsjorcV_16qsoripper_server20server_ready_message
FN:718,_RNvCsujLUsjorcV_16qsoripper_server21parse_storage_backend
FN:159,_RNvCsujLUsjorcV_16qsoripper_server22load_dotenv_if_present
FN:129,_RNvCsujLUsjorcV_16qsoripper_server22setup_completion_label
FN:137,_RNvCsujLUsjorcV_16qsoripper_server23server_starting_message
FN:739,_RNvCsujLUsjorcV_16qsoripper_server27qso_list_query_from_request
FN:778,_RNvCsujLUsjorcV_16qsoripper_server34export_qso_list_query_from_request
FN:213,_RNvCsujLUsjorcV_16qsoripper_server39sanitize_legacy_qrz_user_agent_contents
FN:189,_RNvCsujLUsjorcV_16qsoripper_server40legacy_qrz_user_agent_line_compatibility
FN:178,_RNvCsujLUsjorcV_16qsoripper_server52load_dotenv_with_legacy_qrz_user_agent_compatibility
FN:253,_RNvMCsujLUsjorcV_16qsoripper_serverNtB2_23DeveloperLogbookService3new
FN:548,_RNvMs0_CsujLUsjorcV_16qsoripper_serverNtB5_23DeveloperControlSurface3new
FN:692,_RNvMs1_CsujLUsjorcV_16qsoripper_serverNtB5_13ServerOptions36runtime_config_cli_storage_overrides
FN:462,_RNvMs_CsujLUsjorcV_16qsoripper_serverNtB4_22DeveloperLookupService3new
FN:310,_RNvXs3_CsujLUsjorcV_16qsoripper_serverNtB5_23DeveloperLogbookServiceNtNtNtNtNtCsgPbJLsevrBc_14qsoripper_core5proto9qsoripper8services22logbook_service_server14LogbookService10delete_qso
FN:290,_RNvXs3_CsujLUsjorcV_16qsoripper_serverNtB5_23DeveloperLogbookServiceNtNtNtNtNtCsgPbJLsevrBc_14qsoripper_core5proto9qsoripper8services22logbook_service_server14LogbookService10update_qso
FN:429,_RNvXs3_CsujLUsjorcV_16qsoripper_serverNtB5_23DeveloperLogbookServiceNtNtNtNtNtCsgPbJLsevrBc_14qsoripper_core5proto9qsoripper8services22logbook_service_server14LogbookService11export_adif
FN:396,_RNvXs3_CsujLUsjorcV_16qsoripper_serverNtB5_23DeveloperLogbookServiceNtNtNtNtNtCsgPbJLsevrBc_14qsoripper_core5proto9qsoripper8services22logbook_service_server14LogbookService11import_adif
FN:368,_RNvXs3_CsujLUsjorcV_16qsoripper_serverNtB5_23DeveloperLogbookServiceNtNtNtNtNtCsgPbJLsevrBc_14qsoripper_core5proto9qsoripper8services22logbook_service_server14LogbookService13sync_with_qrz
FN:375,_RNvXs3_CsujLUsjorcV_16qsoripper_serverNtB5_23DeveloperLogbookServiceNtNtNtNtNtCsgPbJLsevrBc_14qsoripper_core5proto9qsoripper8services22logbook_service_server14LogbookService15get_sync_status
FN:331,_RNvXs3_CsujLUsjorcV_16qsoripper_serverNtB5_23DeveloperLogbookServiceNtNtNtNtNtCsgPbJLsevrBc_14qsoripper_core5proto9qsoripper8services22logbook_service_server14LogbookService7get_qso
FN:267,_RNvXs3_CsujLUsjorcV_16qsoripper_serverNtB5_23DeveloperLogbookServiceNtNtNtNtNtCsgPbJLsevrBc_14qsoripper_core5proto9qsoripper8services22logbook_service_server14LogbookService7log_qso
FN:345,_RNvXs3_CsujLUsjorcV_16qsoripper_serverNtB5_23DeveloperLogbookServiceNtNtNtNtNtCsgPbJLsevrBc_14qsoripper_core5proto9qsoripper8services22logbook_service_server14LogbookService9list_qsos
FN:535,_RNvXs5_CsujLUsjorcV_16qsoripper_serverNtB5_22DeveloperLookupServiceNtNtNtNtNtCsgPbJLsevrBc_14qsoripper_core5proto9qsoripper8services21lookup_service_server13LookupService12batch_lookup
FN:488,_RNvXs5_CsujLUsjorcV_16qsoripper_serverNtB5_22DeveloperLookupServiceNtNtNtNtNtCsgPbJLsevrBc_14qsoripper_core5proto9qsoripper8services21lookup_service_server13LookupService13stream_lookup
FN:526,_RNvXs5_CsujLUsjorcV_16qsoripper_serverNtB5_22DeveloperLookupServiceNtNtNtNtNtCsgPbJLsevrBc_14qsoripper_core5proto9qsoripper8services21lookup_service_server13LookupService15get_dxcc_entity
FN:514,_RNvXs5_CsujLUsjorcV_16qsoripper_serverNtB5_22DeveloperLookupServiceNtNtNtNtNtCsgPbJLsevrBc_14qsoripper_core5proto9qsoripper8services21lookup_service_server13LookupService19get_cached_callsign
FN:474,_RNvXs5_CsujLUsjorcV_16qsoripper_serverNtB5_22DeveloperLookupServiceNtNtNtNtNtCsgPbJLsevrBc_14qsoripper_core5proto9qsoripper8services21lookup_service_server13LookupService6lookup
FN:558,_RNvXs7_CsujLUsjorcV_16qsoripper_serverNtB5_23DeveloperControlSurfaceNtNtNtNtNtCsgPbJLsevrBc_14qsoripper_core5proto9qsoripper8services32developer_control_service_server23DeveloperControlService18get_runtime_config
FN:567,_RNvXs7_CsujLUsjorcV_16qsoripper_serverNtB5_23DeveloperControlSurfaceNtNtNtNtNtCsgPbJLsevrBc_14qsoripper_core5proto9qsoripper8services32developer_control_service_server23DeveloperControlService20apply_runtime_config
FN:581,_RNvXs7_CsujLUsjorcV_16qsoripper_serverNtB5_23DeveloperControlSurfaceNtNtNtNtNtCsgPbJLsevrBc_14qsoripper_core5proto9qsoripper8services32developer_control_service_server23DeveloperControlService20reset_runtime_config
FN:872,_RNvMNtCsujLUsjorcV_16qsoripper_server5testsNtB2_17ProcessStateGuard19restore_current_dir
FN:862,_RNvMNtCsujLUsjorcV_16qsoripper_server5testsNtB2_17ProcessStateGuard7capture
FN:1108,_RNvNtCsujLUsjorcV_16qsoripper_server5tests19grpc_logbook_client
FN:1139,_RNvNtCsujLUsjorcV_16qsoripper_server5tests19import_adif_payload
FN:900,_RNvNtCsujLUsjorcV_16qsoripper_server5tests19test_lookup_service
FN:904,_RNvNtCsujLUsjorcV_16qsoripper_server5tests19test_runtime_config
FN:942,_RNvNtCsujLUsjorcV_16qsoripper_server5tests23unique_sqlite_test_path
FN:971,_RNvNtCsujLUsjorcV_16qsoripper_server5tests26exercise_logbook_crud_flow
FN:889,_RNvNtCsujLUsjorcV_16qsoripper_server5tests27capture_clean_process_state
FN:1146,_RNvNtCsujLUsjorcV_16qsoripper_server5tests32import_adif_payload_with_refresh
FN:908,_RNvNtCsujLUsjorcV_16qsoripper_server5tests32test_runtime_config_with_logbook
FN:953,_RNvNtCsujLUsjorcV_16qsoripper_server5tests35sample_qso_without_station_callsign
FN:1370,_RNvNtCsujLUsjorcV_16qsoripper_server5testss_36build_storage_uses_requested_backend
FN:2015,_RNvNtCsujLUsjorcV_16qsoripper_server5testss_40logbook_requires_timestamp_band_and_mode
FN:1298,_RNvNtCsujLUsjorcV_16qsoripper_server5testss_43lookup_result_defaults_to_unspecified_state
FN:1759,_RNvNtCsujLUsjorcV_16qsoripper_server5testss_44adif_import_refresh_updates_existing_records
FN:1363,_RNvNtCsujLUsjorcV_16qsoripper_server5testss_44parse_storage_backend_rejects_unknown_values
FN:1305,_RNvNtCsujLUsjorcV_16qsoripper_server5testss_44server_options_allow_sqlite_storage_override
FN:1259,_RNvNtCsujLUsjorcV_16qsoripper_server5testss_44server_ready_message_confirms_bound_listener
FN:1561,_RNvNtCsujLUsjorcV_16qsoripper_server5testss_45logbook_sync_status_reports_live_local_counts
FN:1285,_RNvNtCsujLUsjorcV_16qsoripper_server5testss_45server_options_allow_explicit_listen_override
FN:1274,_RNvNtCsujLUsjorcV_16qsoripper_server5testss_46server_options_default_to_localhost_port_50051
FN:1921,_RNvNtCsujLUsjorcV_16qsoripper_server5testss_47adif_export_streams_filtered_qsos_in_adif_order
FN:1244,_RNvNtCsujLUsjorcV_16qsoripper_server5testss_47server_starting_message_reports_pending_startup
FN:1886,_RNvNtCsujLUsjorcV_16qsoripper_server5testss_50adif_import_refresh_handles_mixed_new_and_existing
FN:1400,_RNvNtCsujLUsjorcV_16qsoripper_server5testss_50server_exits_cleanly_when_shutdown_signal_resolves
FN:1533,_RNvNtCsujLUsjorcV_16qsoripper_server5testss_51logbook_crud_flow_works_through_memory_grpc_surface
FN:1544,_RNvNtCsujLUsjorcV_16qsoripper_server5testss_51logbook_crud_flow_works_through_sqlite_grpc_surface
FN:1836,_RNvNtCsujLUsjorcV_16qsoripper_server5testss_55adif_import_refresh_preserves_fields_absent_from_import
FN:1167,_RNvNtCsujLUsjorcV_16qsoripper_server5testss_55load_dotenv_if_present_reads_env_from_current_directory
FN:1490,_RNvNtCsujLUsjorcV_16qsoripper_server5testss_57cache_lookup_defaults_to_unspecified_without_cached_value
FN:1510,_RNvNtCsujLUsjorcV_16qsoripper_server5testss_58dxcc_and_batch_lookup_remain_unimplemented_for_first_slice
FN:1632,_RNvNtCsujLUsjorcV_16qsoripper_server5testss_60adif_import_preserves_station_history_and_reports_duplicates
FN:1455,_RNvNtCsujLUsjorcV_16qsoripper_server5testss_64stream_lookup_emits_loading_then_error_when_provider_is_disabled
FN:1693,_RNvNtCsujLUsjorcV_16qsoripper_server5testss_65adif_import_uses_active_station_profile_only_as_explicit_fallback
FN:1997,_RNvNtCsujLUsjorcV_16qsoripper_server5testss_65logbook_requires_station_context_when_station_callsign_is_missing
FN:1741,_RNvNtCsujLUsjorcV_16qsoripper_server5testss_67adif_import_reports_invalid_records_without_active_station_fallback
FN:1429,_RNvNtCsujLUsjorcV_16qsoripper_server5testss_67lookup_service_lookup_returns_error_state_when_provider_is_disabled
FN:1208,_RNvNtCsujLUsjorcV_16qsoripper_server5testss_71legacy_qrz_user_agent_compatibility_rewrites_and_preserves_later_values
FN:1338,_RNvNtCsujLUsjorcV_16qsoripper_server5testss_76server_options_emit_default_sqlite_path_when_cli_selects_sqlite_without_path
FN:1115,_RNCNCNvNtCsujLUsjorcV_16qsoripper_server5tests19grpc_logbook_client00B7_
FN:1019,_RNCNCNvNtCsujLUsjorcV_16qsoripper_server5tests26exercise_logbook_crud_flow00B7_
FN:1067,_RNCNCNvNtCsujLUsjorcV_16qsoripper_server5tests26exercise_logbook_crud_flow0s_0B7_
FN:1152,_RNCNCNvNtCsujLUsjorcV_16qsoripper_server5tests32import_adif_payload_with_refresh00B7_
FN:1805,_RNCNCNvNtCsujLUsjorcV_16qsoripper_server5testss_44adif_import_refresh_updates_existing_records00B7_
FN:1978,_RNCNCNvNtCsujLUsjorcV_16qsoripper_server5testss_47adif_export_streams_filtered_qsos_in_adif_order00B7_
FN:1981,_RNCNCNvNtCsujLUsjorcV_16qsoripper_server5testss_47adif_export_streams_filtered_qsos_in_adif_order0s_0B7_
FN:1669,_RNCNCNvNtCsujLUsjorcV_16qsoripper_server5testss_60adif_import_preserves_station_history_and_reports_duplicates00B7_
FN:1658,_RNCNCNvNtCsujLUsjorcV_16qsoripper_server5testss_60adif_import_preserves_station_history_and_reports_duplicates0s_0B7_
FN:1469,_RNCNCNvNtCsujLUsjorcV_16qsoripper_server5testss_64stream_lookup_emits_loading_then_error_when_provider_is_disabled00B7_
FN:1710,_RNCNCNvNtCsujLUsjorcV_16qsoripper_server5testss_65adif_import_uses_active_station_profile_only_as_explicit_fallback00B7_
FN:1734,_RNCNCNvNtCsujLUsjorcV_16qsoripper_server5testss_65adif_import_uses_active_station_profile_only_as_explicit_fallback0s_0B7_
FN:1753,_RNCNCNvNtCsujLUsjorcV_16qsoripper_server5testss_67adif_import_reports_invalid_records_without_active_station_fallback00B7_
FN:867,_RNCNvMNtCsujLUsjorcV_16qsoripper_server5testsNtB4_17ProcessStateGuard7capture0B6_
FN:1110,_RNCNvNtCsujLUsjorcV_16qsoripper_server5tests19grpc_logbook_client0B5_
FN:1142,_RNCNvNtCsujLUsjorcV_16qsoripper_server5tests19import_adif_payload0B5_
FN:971,_RNCNvNtCsujLUsjorcV_16qsoripper_server5tests26exercise_logbook_crud_flow0B5_
FN:1150,_RNCNvNtCsujLUsjorcV_16qsoripper_server5tests32import_adif_payload_with_refresh0B5_
FN:2015,_RNCNvNtCsujLUsjorcV_16qsoripper_server5testss_40logbook_requires_timestamp_band_and_mode0B5_
FN:1759,_RNCNvNtCsujLUsjorcV_16qsoripper_server5testss_44adif_import_refresh_updates_existing_records0B5_
FN:1561,_RNCNvNtCsujLUsjorcV_16qsoripper_server5testss_45logbook_sync_status_reports_live_local_counts0B5_
FN:1921,_RNCNvNtCsujLUsjorcV_16qsoripper_server5testss_47adif_export_streams_filtered_qsos_in_adif_order0B5_
FN:1886,_RNCNvNtCsujLUsjorcV_16qsoripper_server5testss_50adif_import_refresh_handles_mixed_new_and_existing0B5_
FN:1400,_RNCNvNtCsujLUsjorcV_16qsoripper_server5testss_50server_exits_cleanly_when_shutdown_signal_resolves0B5_
FN:1533,_RNCNvNtCsujLUsjorcV_16qsoripper_server5testss_51logbook_crud_flow_works_through_memory_grpc_surface0B5_
FN:1544,_RNCNvNtCsujLUsjorcV_16qsoripper_server5testss_51logbook_crud_flow_works_through_sqlite_grpc_surface0B5_
FN:1836,_RNCNvNtCsujLUsjorcV_16qsoripper_server5testss_55adif_import_refresh_preserves_fields_absent_from_import0B5_
FN:1490,_RNCNvNtCsujLUsjorcV_16qsoripper_server5testss_57cache_lookup_defaults_to_unspecified_without_cached_value0B5_
FN:1510,_RNCNvNtCsujLUsjorcV_16qsoripper_server5testss_58dxcc_and_batch_lookup_remain_unimplemented_for_first_slice0B5_
FN:1632,_RNCNvNtCsujLUsjorcV_16qsoripper_server5testss_60adif_import_preserves_station_history_and_reports_duplicates0B5_
FN:1455,_RNCNvNtCsujLUsjorcV_16qsoripper_server5testss_64stream_lookup_emits_loading_then_error_when_provider_is_disabled0B5_
FN:1693,_RNCNvNtCsujLUsjorcV_16qsoripper_server5testss_65adif_import_uses_active_station_profile_only_as_explicit_fallback0B5_
FN:1997,_RNCNvNtCsujLUsjorcV_16qsoripper_server5testss_65logbook_requires_station_context_when_station_callsign_is_missing0B5_
FN:1741,_RNCNvNtCsujLUsjorcV_16qsoripper_server5testss_67adif_import_reports_invalid_records_without_active_station_fallback0B5_
FN:1429,_RNCNvNtCsujLUsjorcV_16qsoripper_server5testss_67lookup_service_lookup_returns_error_state_when_provider_is_disabled0B5_
FN:49,_RINvCsujLUsjorcV_16qsoripper_server10run_serverINtNtNtCs5cb5cxfFw7H_4core6future5ready5ReadyINtNtBQ_6result6ResultuNtNtNtCsja4ZeDc2XAj_3std2io5error5ErrorEEEB2_
FN:615,_RINvMs1_CsujLUsjorcV_16qsoripper_serverNtB6_13ServerOptions17from_env_and_argsANtNtCs2ocB3yIIgEv_5alloc6string6Stringj2_EB6_
FN:615,_RINvMs1_CsujLUsjorcV_16qsoripper_serverNtB6_13ServerOptions17from_env_and_argsANtNtCs2ocB3yIIgEv_5alloc6string6Stringj4_EB6_
FN:615,_RINvMs1_CsujLUsjorcV_16qsoripper_serverNtB6_13ServerOptions17from_env_and_argsINtNtCs2ocB3yIIgEv_5alloc3vec3VecNtNtB1j_6string6StringEEB6_
FN:55,_RNCINvCsujLUsjorcV_16qsoripper_server10run_serverINtNtNtCs5cb5cxfFw7H_4core6future5ready5ReadyINtNtBS_6result6ResultuNtNtNtCsja4ZeDc2XAj_3std2io5error5ErrorEEE0B4_
FN:620,_RNCINvMs1_CsujLUsjorcV_16qsoripper_serverNtB8_13ServerOptions17from_env_and_argsANtNtCs2ocB3yIIgEv_5alloc6string6Stringj2_E0B8_
FN:628,_RNCINvMs1_CsujLUsjorcV_16qsoripper_serverNtB8_13ServerOptions17from_env_and_argsANtNtCs2ocB3yIIgEv_5alloc6string6Stringj2_Es0_0B8_
FN:625,_RNCINvMs1_CsujLUsjorcV_16qsoripper_serverNtB8_13ServerOptions17from_env_and_argsANtNtCs2ocB3yIIgEv_5alloc6string6Stringj2_Es_0B8_
FN:620,_RNCINvMs1_CsujLUsjorcV_16qsoripper_serverNtB8_13ServerOptions17from_env_and_argsANtNtCs2ocB3yIIgEv_5alloc6string6Stringj4_E0B8_
FN:628,_RNCINvMs1_CsujLUsjorcV_16qsoripper_serverNtB8_13ServerOptions17from_env_and_argsANtNtCs2ocB3yIIgEv_5alloc6string6Stringj4_Es0_0B8_
FN:625,_RNCINvMs1_CsujLUsjorcV_16qsoripper_serverNtB8_13ServerOptions17from_env_and_argsANtNtCs2ocB3yIIgEv_5alloc6string6Stringj4_Es_0B8_
FN:620,_RNCINvMs1_CsujLUsjorcV_16qsoripper_serverNtB8_13ServerOptions17from_env_and_argsINtNtCs2ocB3yIIgEv_5alloc3vec3VecNtNtB1l_6string6StringEE0B8_
FN:628,_RNCINvMs1_CsujLUsjorcV_16qsoripper_serverNtB8_13ServerOptions17from_env_and_argsINtNtCs2ocB3yIIgEv_5alloc3vec3VecNtNtB1l_6string6StringEEs0_0B8_
FN:625,_RNCINvMs1_CsujLUsjorcV_16qsoripper_serverNtB8_13ServerOptions17from_env_and_argsINtNtCs2ocB3yIIgEv_5alloc3vec3VecNtNtB1l_6string6StringEEs_0B8_
FN:108,_RNCNCINvCsujLUsjorcV_16qsoripper_server10run_serverINtNtNtCs5cb5cxfFw7H_4core6future5ready5ReadyINtNtBU_6result6ResultuNtNtNtCsja4ZeDc2XAj_3std2io5error5ErrorEEE00B6_
FN:744,_RNCNCNvCsujLUsjorcV_16qsoripper_server27qso_list_query_from_request00B5_
FN:751,_RNCNCNvCsujLUsjorcV_16qsoripper_server27qso_list_query_from_requests_00B5_
FN:295,_RNCNCNvXs3_CsujLUsjorcV_16qsoripper_serverNtB9_23DeveloperLogbookServiceNtNtNtNtNtCsgPbJLsevrBc_14qsoripper_core5proto9qsoripper8services22logbook_service_server14LogbookService10update_qso00B9_
FN:406,_RNCNCNvXs3_CsujLUsjorcV_16qsoripper_serverNtB9_23DeveloperLogbookServiceNtNtNtNtNtCsgPbJLsevrBc_14qsoripper_core5proto9qsoripper8services22logbook_service_server14LogbookService11import_adif00B9_
FN:272,_RNCNCNvXs3_CsujLUsjorcV_16qsoripper_serverNtB9_23DeveloperLogbookServiceNtNtNtNtNtCsgPbJLsevrBc_14qsoripper_core5proto9qsoripper8services22logbook_service_server14LogbookService7log_qso00B9_
FN:243,_RNCNvCsujLUsjorcV_16qsoripper_server16find_dotenv_path0B3_
FN:244,_RNCNvCsujLUsjorcV_16qsoripper_server16find_dotenv_paths_0B3_
FN:742,_RNCNvCsujLUsjorcV_16qsoripper_server27qso_list_query_from_request0B3_
FN:749,_RNCNvCsujLUsjorcV_16qsoripper_server27qso_list_query_from_requests_0B3_
FNDA:0,_RNCNvCsujLUsjorcV_16qsoripper_server4main0B3_
FNDA:0,_RNvCsujLUsjorcV_16qsoripper_server4main
FNDA:5,_RNvXs_NtCsujLUsjorcV_16qsoripper_server5testsNtB4_17ProcessStateGuardNtNtNtCs5cb5cxfFw7H_4core3ops4drop4Drop4drop
FNDA:0,_RNvCsujLUsjorcV_16qsoripper_server10print_help
FNDA:11,_RNvCsujLUsjorcV_16qsoripper_server11sync_result
FNDA:55,_RNvCsujLUsjorcV_16qsoripper_server13build_storage
FNDA:0,_RNvCsujLUsjorcV_16qsoripper_server16find_dotenv_path
FNDA:3,_RNvCsujLUsjorcV_16qsoripper_server16non_empty_string
FNDA:6,_RNvCsujLUsjorcV_16qsoripper_server17map_logbook_error
FNDA:2,_RNvCsujLUsjorcV_16qsoripper_server20server_ready_message
FNDA:63,_RNvCsujLUsjorcV_16qsoripper_server21parse_storage_backend
FNDA:1,_RNvCsujLUsjorcV_16qsoripper_server22load_dotenv_if_present
FNDA:1,_RNvCsujLUsjorcV_16qsoripper_server22setup_completion_label
FNDA:2,_RNvCsujLUsjorcV_16qsoripper_server23server_starting_message
FNDA:6,_RNvCsujLUsjorcV_16qsoripper_server27qso_list_query_from_request
FNDA:1,_RNvCsujLUsjorcV_16qsoripper_server34export_qso_list_query_from_request
FNDA:1,_RNvCsujLUsjorcV_16qsoripper_server39sanitize_legacy_qrz_user_agent_contents
FNDA:4,_RNvCsujLUsjorcV_16qsoripper_server40legacy_qrz_user_agent_line_compatibility
FNDA:0,_RNvCsujLUsjorcV_16qsoripper_server52load_dotenv_with_legacy_qrz_user_agent_compatibility
FNDA:13,_RNvMCsujLUsjorcV_16qsoripper_serverNtB2_23DeveloperLogbookService3new
FNDA:1,_RNvMs0_CsujLUsjorcV_16qsoripper_serverNtB5_23DeveloperControlSurface3new
FNDA:6,_RNvMs1_CsujLUsjorcV_16qsoripper_serverNtB5_13ServerOptions36runtime_config_cli_storage_overrides
FNDA:5,_RNvMs_CsujLUsjorcV_16qsoripper_serverNtB4_22DeveloperLookupService3new
FNDA:3,_RNvXs3_CsujLUsjorcV_16qsoripper_serverNtB5_23DeveloperLogbookServiceNtNtNtNtNtCsgPbJLsevrBc_14qsoripper_core5proto9qsoripper8services22logbook_service_server14LogbookService10delete_qso
FNDA:2,_RNvXs3_CsujLUsjorcV_16qsoripper_serverNtB5_23DeveloperLogbookServiceNtNtNtNtNtCsgPbJLsevrBc_14qsoripper_core5proto9qsoripper8services22logbook_service_server14LogbookService10update_qso
FNDA:1,_RNvXs3_CsujLUsjorcV_16qsoripper_serverNtB5_23DeveloperLogbookServiceNtNtNtNtNtCsgPbJLsevrBc_14qsoripper_core5proto9qsoripper8services22logbook_service_server14LogbookService11export_adif
FNDA:10,_RNvXs3_CsujLUsjorcV_16qsoripper_serverNtB5_23DeveloperLogbookServiceNtNtNtNtNtCsgPbJLsevrBc_14qsoripper_core5proto9qsoripper8services22logbook_service_server14LogbookService11import_adif
FNDA:0,_RNvXs3_CsujLUsjorcV_16qsoripper_serverNtB5_23DeveloperLogbookServiceNtNtNtNtNtCsgPbJLsevrBc_14qsoripper_core5proto9qsoripper8services22logbook_service_server14LogbookService13sync_with_qrz
FNDA:3,_RNvXs3_CsujLUsjorcV_16qsoripper_serverNtB5_23DeveloperLogbookServiceNtNtNtNtNtCsgPbJLsevrBc_14qsoripper_core5proto9qsoripper8services22logbook_service_server14LogbookService15get_sync_status
FNDA:7,_RNvXs3_CsujLUsjorcV_16qsoripper_serverNtB5_23DeveloperLogbookServiceNtNtNtNtNtCsgPbJLsevrBc_14qsoripper_core5proto9qsoripper8services22logbook_service_server14LogbookService7get_qso
FNDA:10,_RNvXs3_CsujLUsjorcV_16qsoripper_serverNtB5_23DeveloperLogbookServiceNtNtNtNtNtCsgPbJLsevrBc_14qsoripper_core5proto9qsoripper8services22logbook_service_server14LogbookService7log_qso
FNDA:6,_RNvXs3_CsujLUsjorcV_16qsoripper_serverNtB5_23DeveloperLogbookServiceNtNtNtNtNtCsgPbJLsevrBc_14qsoripper_core5proto9qsoripper8services22logbook_service_server14LogbookService9list_qsos
FNDA:1,_RNvXs5_CsujLUsjorcV_16qsoripper_serverNtB5_22DeveloperLookupServiceNtNtNtNtNtCsgPbJLsevrBc_14qsoripper_core5proto9qsoripper8services21lookup_service_server13LookupService12batch_lookup
FNDA:1,_RNvXs5_CsujLUsjorcV_16qsoripper_serverNtB5_22DeveloperLookupServiceNtNtNtNtNtCsgPbJLsevrBc_14qsoripper_core5proto9qsoripper8services21lookup_service_server13LookupService13stream_lookup
FNDA:1,_RNvXs5_CsujLUsjorcV_16qsoripper_serverNtB5_22DeveloperLookupServiceNtNtNtNtNtCsgPbJLsevrBc_14qsoripper_core5proto9qsoripper8services21lookup_service_server13LookupService15get_dxcc_entity
FNDA:1,_RNvXs5_CsujLUsjorcV_16qsoripper_serverNtB5_22DeveloperLookupServiceNtNtNtNtNtCsgPbJLsevrBc_14qsoripper_core5proto9qsoripper8services21lookup_service_server13LookupService19get_cached_callsign
FNDA:1,_RNvXs5_CsujLUsjorcV_16qsoripper_serverNtB5_22DeveloperLookupServiceNtNtNtNtNtCsgPbJLsevrBc_14qsoripper_core5proto9qsoripper8services21lookup_service_server13LookupService6lookup
FNDA:0,_RNvXs7_CsujLUsjorcV_16qsoripper_serverNtB5_23DeveloperControlSurfaceNtNtNtNtNtCsgPbJLsevrBc_14qsoripper_core5proto9qsoripper8services32developer_control_service_server23DeveloperControlService18get_runtime_config
FNDA:0,_RNvXs7_CsujLUsjorcV_16qsoripper_serverNtB5_23DeveloperControlSurfaceNtNtNtNtNtCsgPbJLsevrBc_14qsoripper_core5proto9qsoripper8services32developer_control_service_server23DeveloperControlService20apply_runtime_config
FNDA:0,_RNvXs7_CsujLUsjorcV_16qsoripper_serverNtB5_23DeveloperControlSurfaceNtNtNtNtNtCsgPbJLsevrBc_14qsoripper_core5proto9qsoripper8services32developer_control_service_server23DeveloperControlService20reset_runtime_config
FNDA:1,_RNvMNtCsujLUsjorcV_16qsoripper_server5testsNtB2_17ProcessStateGuard19restore_current_dir
FNDA:5,_RNvMNtCsujLUsjorcV_16qsoripper_server5testsNtB2_17ProcessStateGuard7capture
FNDA:7,_RNvNtCsujLUsjorcV_16qsoripper_server5tests19grpc_logbook_client
FNDA:7,_RNvNtCsujLUsjorcV_16qsoripper_server5tests19import_adif_payload
FNDA:4,_RNvNtCsujLUsjorcV_16qsoripper_server5tests19test_lookup_service
FNDA:7,_RNvNtCsujLUsjorcV_16qsoripper_server5tests19test_runtime_config
FNDA:2,_RNvNtCsujLUsjorcV_16qsoripper_server5tests23unique_sqlite_test_path
FNDA:2,_RNvNtCsujLUsjorcV_16qsoripper_server5tests26exercise_logbook_crud_flow
FNDA:5,_RNvNtCsujLUsjorcV_16qsoripper_server5tests27capture_clean_process_state
FNDA:10,_RNvNtCsujLUsjorcV_16qsoripper_server5tests32import_adif_payload_with_refresh
FNDA:9,_RNvNtCsujLUsjorcV_16qsoripper_server5tests32test_runtime_config_with_logbook
FNDA:3,_RNvNtCsujLUsjorcV_16qsoripper_server5tests35sample_qso_without_station_callsign
FNDA:1,_RNvNtCsujLUsjorcV_16qsoripper_server5testss_36build_storage_uses_requested_backend
FNDA:1,_RNvNtCsujLUsjorcV_16qsoripper_server5testss_40logbook_requires_timestamp_band_and_mode
FNDA:1,_RNvNtCsujLUsjorcV_16qsoripper_server5testss_43lookup_result_defaults_to_unspecified_state
FNDA:1,_RNvNtCsujLUsjorcV_16qsoripper_server5testss_44adif_import_refresh_updates_existing_records
FNDA:1,_RNvNtCsujLUsjorcV_16qsoripper_server5testss_44parse_storage_backend_rejects_unknown_values
FNDA:1,_RNvNtCsujLUsjorcV_16qsoripper_server5testss_44server_options_allow_sqlite_storage_override
FNDA:1,_RNvNtCsujLUsjorcV_16qsoripper_server5testss_44server_ready_message_confirms_bound_listener
FNDA:1,_RNvNtCsujLUsjorcV_16qsoripper_server5testss_45logbook_sync_status_reports_live_local_counts
FNDA:1,_RNvNtCsujLUsjorcV_16qsoripper_server5testss_45server_options_allow_explicit_listen_override
FNDA:1,_RNvNtCsujLUsjorcV_16qsoripper_server5testss_46server_options_default_to_localhost_port_50051
FNDA:1,_RNvNtCsujLUsjorcV_16qsoripper_server5testss_47adif_export_streams_filtered_qsos_in_adif_order
FNDA:1,_RNvNtCsujLUsjorcV_16qsoripper_server5testss_47server_starting_message_reports_pending_startup
FNDA:1,_RNvNtCsujLUsjorcV_16qsoripper_server5testss_50adif_import_refresh_handles_mixed_new_and_existing
FNDA:1,_RNvNtCsujLUsjorcV_16qsoripper_server5testss_50server_exits_cleanly_when_shutdown_signal_resolves
FNDA:1,_RNvNtCsujLUsjorcV_16qsoripper_server5testss_51logbook_crud_flow_works_through_memory_grpc_surface
FNDA:1,_RNvNtCsujLUsjorcV_16qsoripper_server5testss_51logbook_crud_flow_works_through_sqlite_grpc_surface
FNDA:1,_RNvNtCsujLUsjorcV_16qsoripper_server5testss_55adif_import_refresh_preserves_fields_absent_from_import
FNDA:1,_RNvNtCsujLUsjorcV_16qsoripper_server5testss_55load_dotenv_if_present_reads_env_from_current_directory
FNDA:1,_RNvNtCsujLUsjorcV_16qsoripper_server5testss_57cache_lookup_defaults_to_unspecified_without_cached_value
FNDA:1,_RNvNtCsujLUsjorcV_16qsoripper_server5testss_58dxcc_and_batch_lookup_remain_unimplemented_for_first_slice
FNDA:1,_RNvNtCsujLUsjorcV_16qsoripper_server5testss_60adif_import_preserves_station_history_and_reports_duplicates
FNDA:1,_RNvNtCsujLUsjorcV_16qsoripper_server5testss_64stream_lookup_emits_loading_then_error_when_provider_is_disabled
FNDA:1,_RNvNtCsujLUsjorcV_16qsoripper_server5testss_65adif_import_uses_active_station_profile_only_as_explicit_fallback
FNDA:1,_RNvNtCsujLUsjorcV_16qsoripper_server5testss_65logbook_requires_station_context_when_station_callsign_is_missing
FNDA:1,_RNvNtCsujLUsjorcV_16qsoripper_server5testss_67adif_import_reports_invalid_records_without_active_station_fallback
FNDA:1,_RNvNtCsujLUsjorcV_16qsoripper_server5testss_67lookup_service_lookup_returns_error_state_when_provider_is_disabled
FNDA:1,_RNvNtCsujLUsjorcV_16qsoripper_server5testss_71legacy_qrz_user_agent_compatibility_rewrites_and_preserves_later_values
FNDA:1,_RNvNtCsujLUsjorcV_16qsoripper_server5testss_76server_options_emit_default_sqlite_path_when_cli_selects_sqlite_without_path
FNDA:7,_RNCNCNvNtCsujLUsjorcV_16qsoripper_server5tests19grpc_logbook_client00B7_
FNDA:2,_RNCNCNvNtCsujLUsjorcV_16qsoripper_server5tests26exercise_logbook_crud_flow00B7_
FNDA:2,_RNCNCNvNtCsujLUsjorcV_16qsoripper_server5tests26exercise_logbook_crud_flow0s_0B7_
FNDA:11,_RNCNCNvNtCsujLUsjorcV_16qsoripper_server5tests32import_adif_payload_with_refresh00B7_
FNDA:1,_RNCNCNvNtCsujLUsjorcV_16qsoripper_server5testss_44adif_import_refresh_updates_existing_records00B7_
FNDA:1,_RNCNCNvNtCsujLUsjorcV_16qsoripper_server5testss_47adif_export_streams_filtered_qsos_in_adif_order00B7_
FNDA:1,_RNCNCNvNtCsujLUsjorcV_16qsoripper_server5testss_47adif_export_streams_filtered_qsos_in_adif_order0s_0B7_
FNDA:1,_RNCNCNvNtCsujLUsjorcV_16qsoripper_server5testss_60adif_import_preserves_station_history_and_reports_duplicates00B7_
FNDA:1,_RNCNCNvNtCsujLUsjorcV_16qsoripper_server5testss_60adif_import_preserves_station_history_and_reports_duplicates0s_0B7_
FNDA:2,_RNCNCNvNtCsujLUsjorcV_16qsoripper_server5testss_64stream_lookup_emits_loading_then_error_when_provider_is_disabled00B7_
FNDA:1,_RNCNCNvNtCsujLUsjorcV_16qsoripper_server5testss_65adif_import_uses_active_station_profile_only_as_explicit_fallback00B7_
FNDA:1,_RNCNCNvNtCsujLUsjorcV_16qsoripper_server5testss_65adif_import_uses_active_station_profile_only_as_explicit_fallback0s_0B7_
FNDA:1,_RNCNCNvNtCsujLUsjorcV_16qsoripper_server5testss_67adif_import_reports_invalid_records_without_active_station_fallback00B7_
FNDA:20,_RNCNvMNtCsujLUsjorcV_16qsoripper_server5testsNtB4_17ProcessStateGuard7capture0B6_
FNDA:7,_RNCNvNtCsujLUsjorcV_16qsoripper_server5tests19grpc_logbook_client0B5_
FNDA:7,_RNCNvNtCsujLUsjorcV_16qsoripper_server5tests19import_adif_payload0B5_
FNDA:2,_RNCNvNtCsujLUsjorcV_16qsoripper_server5tests26exercise_logbook_crud_flow0B5_
FNDA:10,_RNCNvNtCsujLUsjorcV_16qsoripper_server5tests32import_adif_payload_with_refresh0B5_
FNDA:1,_RNCNvNtCsujLUsjorcV_16qsoripper_server5testss_40logbook_requires_timestamp_band_and_mode0B5_
FNDA:1,_RNCNvNtCsujLUsjorcV_16qsoripper_server5testss_44adif_import_refresh_updates_existing_records0B5_
FNDA:1,_RNCNvNtCsujLUsjorcV_16qsoripper_server5testss_45logbook_sync_status_reports_live_local_counts0B5_
FNDA:1,_RNCNvNtCsujLUsjorcV_16qsoripper_server5testss_47adif_export_streams_filtered_qsos_in_adif_order0B5_
FNDA:1,_RNCNvNtCsujLUsjorcV_16qsoripper_server5testss_50adif_import_refresh_handles_mixed_new_and_existing0B5_
FNDA:1,_RNCNvNtCsujLUsjorcV_16qsoripper_server5testss_50server_exits_cleanly_when_shutdown_signal_resolves0B5_
FNDA:1,_RNCNvNtCsujLUsjorcV_16qsoripper_server5testss_51logbook_crud_flow_works_through_memory_grpc_surface0B5_
FNDA:1,_RNCNvNtCsujLUsjorcV_16qsoripper_server5testss_51logbook_crud_flow_works_through_sqlite_grpc_surface0B5_
FNDA:1,_RNCNvNtCsujLUsjorcV_16qsoripper_server5testss_55adif_import_refresh_preserves_fields_absent_from_import0B5_
FNDA:1,_RNCNvNtCsujLUsjorcV_16qsoripper_server5testss_57cache_lookup_defaults_to_unspecified_without_cached_value0B5_
FNDA:1,_RNCNvNtCsujLUsjorcV_16qsoripper_server5testss_58dxcc_and_batch_lookup_remain_unimplemented_for_first_slice0B5_
FNDA:1,_RNCNvNtCsujLUsjorcV_16qsoripper_server5testss_60adif_import_preserves_station_history_and_reports_duplicates0B5_
FNDA:1,_RNCNvNtCsujLUsjorcV_16qsoripper_server5testss_64stream_lookup_emits_loading_then_error_when_provider_is_disabled0B5_
FNDA:1,_RNCNvNtCsujLUsjorcV_16qsoripper_server5testss_65adif_import_uses_active_station_profile_only_as_explicit_fallback0B5_
FNDA:1,_RNCNvNtCsujLUsjorcV_16qsoripper_server5testss_65logbook_requires_station_context_when_station_callsign_is_missing0B5_
FNDA:1,_RNCNvNtCsujLUsjorcV_16qsoripper_server5testss_67adif_import_reports_invalid_records_without_active_station_fallback0B5_
FNDA:1,_RNCNvNtCsujLUsjorcV_16qsoripper_server5testss_67lookup_service_lookup_returns_error_state_when_provider_is_disabled0B5_
FNDA:1,_RINvCsujLUsjorcV_16qsoripper_server10run_serverINtNtNtCs5cb5cxfFw7H_4core6future5ready5ReadyINtNtBQ_6result6ResultuNtNtNtCsja4ZeDc2XAj_3std2io5error5ErrorEEEB2_
FNDA:2,_RINvMs1_CsujLUsjorcV_16qsoripper_serverNtB6_13ServerOptions17from_env_and_argsANtNtCs2ocB3yIIgEv_5alloc6string6Stringj2_EB6_
FNDA:1,_RINvMs1_CsujLUsjorcV_16qsoripper_serverNtB6_13ServerOptions17from_env_and_argsANtNtCs2ocB3yIIgEv_5alloc6string6Stringj4_EB6_
FNDA:2,_RINvMs1_CsujLUsjorcV_16qsoripper_serverNtB6_13ServerOptions17from_env_and_argsINtNtCs2ocB3yIIgEv_5alloc3vec3VecNtNtB1j_6string6StringEEB6_
FNDA:1,_RNCINvCsujLUsjorcV_16qsoripper_server10run_serverINtNtNtCs5cb5cxfFw7H_4core6future5ready5ReadyINtNtBS_6result6ResultuNtNtNtCsja4ZeDc2XAj_3std2io5error5ErrorEEE0B4_
FNDA:2,_RNCINvMs1_CsujLUsjorcV_16qsoripper_serverNtB8_13ServerOptions17from_env_and_argsANtNtCs2ocB3yIIgEv_5alloc6string6Stringj2_E0B8_
FNDA:2,_RNCINvMs1_CsujLUsjorcV_16qsoripper_serverNtB8_13ServerOptions17from_env_and_argsANtNtCs2ocB3yIIgEv_5alloc6string6Stringj2_Es0_0B8_
FNDA:2,_RNCINvMs1_CsujLUsjorcV_16qsoripper_serverNtB8_13ServerOptions17from_env_and_argsANtNtCs2ocB3yIIgEv_5alloc6string6Stringj2_Es_0B8_
FNDA:1,_RNCINvMs1_CsujLUsjorcV_16qsoripper_serverNtB8_13ServerOptions17from_env_and_argsANtNtCs2ocB3yIIgEv_5alloc6string6Stringj4_E0B8_
FNDA:1,_RNCINvMs1_CsujLUsjorcV_16qsoripper_serverNtB8_13ServerOptions17from_env_and_argsANtNtCs2ocB3yIIgEv_5alloc6string6Stringj4_Es0_0B8_
FNDA:1,_RNCINvMs1_CsujLUsjorcV_16qsoripper_serverNtB8_13ServerOptions17from_env_and_argsANtNtCs2ocB3yIIgEv_5alloc6string6Stringj4_Es_0B8_
FNDA:1,_RNCINvMs1_CsujLUsjorcV_16qsoripper_serverNtB8_13ServerOptions17from_env_and_argsINtNtCs2ocB3yIIgEv_5alloc3vec3VecNtNtB1l_6string6StringEE0B8_
FNDA:1,_RNCINvMs1_CsujLUsjorcV_16qsoripper_serverNtB8_13ServerOptions17from_env_and_argsINtNtCs2ocB3yIIgEv_5alloc3vec3VecNtNtB1l_6string6StringEEs0_0B8_
FNDA:1,_RNCINvMs1_CsujLUsjorcV_16qsoripper_serverNtB8_13ServerOptions17from_env_and_argsINtNtCs2ocB3yIIgEv_5alloc3vec3VecNtNtB1l_6string6StringEEs_0B8_
FNDA:1,_RNCNCINvCsujLUsjorcV_16qsoripper_server10run_serverINtNtNtCs5cb5cxfFw7H_4core6future5ready5ReadyINtNtBU_6result6ResultuNtNtNtCsja4ZeDc2XAj_3std2io5error5ErrorEEE00B6_
FNDA:0,_RNCNCNvCsujLUsjorcV_16qsoripper_server27qso_list_query_from_request00B5_
FNDA:0,_RNCNCNvCsujLUsjorcV_16qsoripper_server27qso_list_query_from_requests_00B5_
FNDA:0,_RNCNCNvXs3_CsujLUsjorcV_16qsoripper_serverNtB9_23DeveloperLogbookServiceNtNtNtNtNtCsgPbJLsevrBc_14qsoripper_core5proto9qsoripper8services22logbook_service_server14LogbookService10update_qso00B9_
FNDA:0,_RNCNCNvXs3_CsujLUsjorcV_16qsoripper_serverNtB9_23DeveloperLogbookServiceNtNtNtNtNtCsgPbJLsevrBc_14qsoripper_core5proto9qsoripper8services22logbook_service_server14LogbookService11import_adif00B9_
FNDA:0,_RNCNCNvXs3_CsujLUsjorcV_16qsoripper_serverNtB9_23DeveloperLogbookServiceNtNtNtNtNtCsgPbJLsevrBc_14qsoripper_core5proto9qsoripper8services22logbook_service_server14LogbookService7log_qso00B9_
FNDA:0,_RNCNvCsujLUsjorcV_16qsoripper_server16find_dotenv_path0B3_
FNDA:0,_RNCNvCsujLUsjorcV_16qsoripper_server16find_dotenv_paths_0B3_
FNDA:0,_RNCNvCsujLUsjorcV_16qsoripper_server27qso_list_query_from_request0B3_
FNDA:0,_RNCNvCsujLUsjorcV_16qsoripper_server27qso_list_query_from_requests_0B3_
FNF:131
FNH:113
DA:43,0
DA:44,0
DA:45,0
DA:46,0
DA:47,0
DA:49,1
DA:50,1
DA:51,1
DA:52,1
DA:53,1
DA:54,1
DA:55,1
DA:56,1
DA:57,1
DA:58,1
DA:59,1
DA:60,1
DA:61,1
DA:62,1
DA:63,0
DA:65,1
DA:66,1
DA:67,1
DA:68,1
DA:69,1
DA:70,1
DA:71,1
DA:72,1
DA:73,1
DA:74,1
DA:76,1
DA:77,1
DA:78,1
DA:79,1
DA:80,1
DA:81,1
DA:82,1
DA:86,1
DA:87,1
DA:89,1
DA:90,1
DA:91,1
DA:92,1
DA:93,1
DA:94,1
DA:95,1
DA:99,1
DA:100,1
DA:101,1
DA:102,1
DA:103,1
DA:104,1
DA:105,1
DA:106,1
DA:108,1
DA:109,1
DA:110,1
DA:111,1
DA:112,1
DA:114,1
DA:115,1
DA:116,0
DA:118,1
DA:119,1
DA:120,1
DA:121,1
DA:122,1
DA:126,1
DA:127,1
DA:129,1
DA:130,1
DA:131,0
DA:133,1
DA:135,1
DA:137,2
DA:138,2
DA:139,2
DA:140,2
DA:141,2
DA:142,2
DA:143,2
DA:144,2
DA:146,2
DA:148,2
DA:149,2
DA:150,2
DA:151,2
DA:152,2
DA:153,2
DA:154,2
DA:155,2
DA:157,2
DA:159,1
DA:160,1
DA:161,1
DA:162,0
DA:163,0
DA:164,0
DA:165,0
DA:166,0
DA:167,0
DA:168,0
DA:169,0
DA:170,0
DA:171,0
DA:172,0
DA:173,0
DA:176,1
DA:178,0
DA:179,0
DA:180,0
DA:182,0
DA:183,0
DA:184,0
DA:185,0
DA:186,0
DA:187,0
DA:189,4
DA:190,4
DA:191,4
DA:193,4
DA:194,2
DA:195,2
DA:197,2
DA:198,2
DA:199,2
DA:200,2
DA:201,2
DA:203,0
DA:204,2
DA:206,2
DA:207,2
DA:208,2
DA:209,2
DA:210,2
DA:211,4
DA:213,1
DA:214,1
DA:215,1
DA:217,3
DA:218,3
DA:219,0
DA:220,3
DA:221,3
DA:223,0
DA:226,3
DA:227,1
DA:228,1
DA:229,2
DA:230,2
DA:231,2
DA:233,3
DA:236,1
DA:237,1
DA:239,0
DA:240,0
DA:241,0
DA:242,0
DA:243,0
DA:244,0
DA:245,0
DA:253,13
DA:254,13
DA:255,13
DA:267,10
DA:272,0
DA:285,10
DA:290,2
DA:295,0
DA:305,2
DA:310,3
DA:326,3
DA:331,7
DA:340,7
DA:345,6
DA:363,6
DA:368,0
DA:370,0
DA:375,3
DA:391,3
DA:396,10
DA:406,0
DA:424,10
DA:429,1
DA:453,1
DA:462,5
DA:463,5
DA:464,5
DA:474,1
DA:483,1
DA:488,1
DA:509,1
DA:514,1
DA:521,1
DA:526,1
DA:530,1
DA:535,1
DA:539,1
DA:548,1
DA:549,1
DA:550,1
DA:558,0
DA:562,0
DA:567,0
DA:576,0
DA:581,0
DA:590,0
DA:615,5
DA:616,5
DA:617,5
DA:619,5
DA:620,5
DA:621,5
DA:622,5
DA:623,5
DA:624,5
DA:625,5
DA:626,0
DA:627,5
DA:628,5
DA:630,5
DA:631,5
DA:633,9
DA:634,4
DA:635,4
DA:636,1
DA:637,1
DA:639,3
DA:640,0
DA:641,0
DA:643,3
DA:644,2
DA:645,2
DA:646,2
DA:647,2
DA:648,2
DA:649,0
DA:650,2
DA:654,1
DA:655,1
DA:656,1
DA:657,1
DA:658,1
DA:659,1
DA:662,0
DA:663,0
DA:664,0
DA:666,0
DA:670,5
DA:671,3
DA:672,2
DA:673,1
DA:674,1
DA:675,1
DA:676,1
DA:677,1
DA:678,4
DA:681,5
DA:682,5
DA:684,5
DA:685,5
DA:686,5
DA:687,5
DA:688,5
DA:690,5
DA:692,6
DA:693,6
DA:694,6
DA:697,0
DA:698,0
DA:699,0
DA:701,0
DA:703,55
DA:704,55
DA:705,55
DA:706,55
DA:707,36
DA:708,19
DA:709,19
DA:710,19
DA:711,19
DA:715,55
DA:716,55
DA:718,63
DA:719,63
DA:720,63
DA:721,23
DA:722,1
DA:724,63
DA:726,6
DA:727,0
DA:728,4
DA:729,2
DA:730,2
DA:732,0
DA:733,0
DA:735,0
DA:737,6
DA:739,6
DA:740,6
DA:741,6
DA:742,6
DA:743,0
DA:744,0
DA:745,0
DA:746,6
DA:747,6
DA:748,6
DA:749,6
DA:750,0
DA:751,0
DA:752,0
DA:753,6
DA:754,6
DA:755,4
DA:756,2
DA:757,0
DA:760,6
DA:761,6
DA:762,6
DA:763,6
DA:764,6
DA:765,6
DA:766,6
DA:767,6
DA:768,6
DA:769,6
DA:770,6
DA:771,6
DA:772,6
DA:773,6
DA:774,6
DA:778,1
DA:779,1
DA:780,1
DA:781,1
DA:782,1
DA:783,1
DA:784,1
DA:785,1
DA:786,1
DA:788,3
DA:789,3
DA:790,3
DA:791,0
DA:793,3
DA:795,3
DA:797,11
DA:798,11
DA:799,0
DA:801,11
DA:803,11
DA:862,5
DA:864,5
DA:866,5
DA:867,20
DA:868,5
DA:870,5
DA:872,1
DA:873,1
DA:874,1
DA:878,5
DA:879,5
DA:880,25
DA:881,20
DA:882,0
DA:883,20
DA:886,5
DA:889,5
DA:890,5
DA:891,5
DA:893,25
DA:894,20
DA:895,20
DA:897,5
DA:898,5
DA:900,4
DA:901,4
DA:902,4
DA:904,7
DA:905,7
DA:906,7
DA:908,9
DA:909,9
DA:910,9
DA:911,9
DA:912,9
DA:913,9
DA:914,9
DA:915,9
DA:916,9
DA:917,8
DA:918,1
DA:922,9
DA:923,1
DA:924,1
DA:925,1
DA:926,1
DA:927,8
DA:929,9
DA:930,9
DA:931,9
DA:932,9
DA:933,9
DA:934,9
DA:935,9
DA:936,9
DA:937,9
DA:939,9
DA:940,9
DA:942,2
DA:943,2
DA:944,2
DA:945,2
DA:946,2
DA:947,2
DA:948,2
DA:949,2
DA:950,2
DA:951,2
DA:953,3
DA:954,3
DA:955,3
DA:956,3
DA:957,3
DA:958,3
DA:959,3
DA:960,3
DA:961,3
DA:962,3
DA:963,3
DA:964,3
DA:965,3
DA:971,2
DA:972,2
DA:973,2
DA:974,2
DA:975,2
DA:976,2
DA:977,2
DA:978,2
DA:979,2
DA:980,2
DA:981,2
DA:983,2
DA:984,2
DA:986,2
DA:987,2
DA:988,2
DA:989,2
DA:990,2
DA:991,2
DA:992,2
DA:993,2
DA:994,2
DA:996,2
DA:998,2
DA:999,2
DA:1000,2
DA:1001,2
DA:1002,2
DA:1003,2
DA:1004,2
DA:1005,2
DA:1007,2
DA:1008,2
DA:1009,2
DA:1010,2
DA:1011,2
DA:1012,2
DA:1013,2
DA:1014,2
DA:1015,2
DA:1016,2
DA:1017,2
DA:1018,2
DA:1019,2
DA:1020,2
DA:1021,2
DA:1023,2
DA:1024,2
DA:1026,2
DA:1029,2
DA:1030,2
DA:1031,2
DA:1032,2
DA:1033,2
DA:1034,2
DA:1035,2
DA:1036,2
DA:1037,2
DA:1038,2
DA:1039,2
DA:1040,2
DA:1041,2
DA:1042,2
DA:1044,2
DA:1045,2
DA:1046,2
DA:1048,2
DA:1049,2
DA:1050,2
DA:1051,2
DA:1052,2
DA:1053,2
DA:1054,2
DA:1055,2
DA:1056,2
DA:1058,2
DA:1060,2
DA:1061,2
DA:1062,2
DA:1064,2
DA:1065,2
DA:1066,2
DA:1067,2
DA:1070,2
DA:1071,2
DA:1072,2
DA:1073,2
DA:1074,2
DA:1076,2
DA:1077,2
DA:1078,2
DA:1079,2
DA:1080,2
DA:1082,2
DA:1083,2
DA:1084,2
DA:1085,2
DA:1086,2
DA:1087,2
DA:1088,2
DA:1089,2
DA:1090,2
DA:1091,2
DA:1093,2
DA:1094,2
DA:1095,2
DA:1097,2
DA:1098,2
DA:1099,2
DA:1100,2
DA:1101,2
DA:1102,2
DA:1103,2
DA:1104,2
DA:1105,2
DA:1106,2
DA:1108,7
DA:1109,7
DA:1110,7
DA:1111,7
DA:1112,7
DA:1113,7
DA:1115,7
DA:1116,7
DA:1117,7
DA:1118,7
DA:1119,7
DA:1120,0
DA:1121,0
DA:1123,7
DA:1124,7
DA:1125,7
DA:1126,7
DA:1127,0
DA:1128,0
DA:1129,0
DA:1130,0
DA:1132,0
DA:1136,0
DA:1137,7
DA:1139,7
DA:1140,7
DA:1141,7
DA:1142,7
DA:1143,7
DA:1144,7
DA:1146,10
DA:1147,10
DA:1148,10
DA:1149,10
DA:1150,10
DA:1151,10
DA:1152,11
DA:1154,11
DA:1155,11
DA:1157,11
DA:1159,10
DA:1160,10
DA:1161,10
DA:1162,10
DA:1163,10
DA:1164,10
DA:1167,1
DA:1168,1
DA:1170,1
DA:1171,1
DA:1172,1
DA:1173,1
DA:1174,1
DA:1175,1
DA:1176,1
DA:1177,1
DA:1178,1
DA:1179,1
DA:1180,1
DA:1181,1
DA:1188,1
DA:1190,1
DA:1191,1
DA:1193,1
DA:1195,1
DA:1196,1
DA:1197,1
DA:1198,1
DA:1202,1
DA:1203,1
DA:1204,1
DA:1205,1
DA:1208,1
DA:1209,1
DA:1210,1
DA:1211,1
DA:1212,1
DA:1215,1
DA:1220,1
DA:1222,1
DA:1223,1
DA:1224,1
DA:1225,1
DA:1227,1
DA:1228,1
DA:1229,1
DA:1230,1
DA:1231,1
DA:1232,1
DA:1233,1
DA:1234,1
DA:1235,1
DA:1236,1
DA:1237,1
DA:1241,1
DA:1244,1
DA:1245,1
DA:1246,1
DA:1247,1
DA:1248,1
DA:1249,1
DA:1252,1
DA:1256,1
DA:1259,1
DA:1260,1
DA:1261,1
DA:1262,1
DA:1263,1
DA:1264,1
DA:1267,1
DA:1271,1
DA:1274,1
DA:1275,1
DA:1277,1
DA:1279,1
DA:1280,1
DA:1281,1
DA:1282,1
DA:1285,1
DA:1286,1
DA:1288,1
DA:1289,1
DA:1290,1
DA:1291,1
DA:1292,1
DA:1294,1
DA:1295,1
DA:1298,1
DA:1299,1
DA:1301,1
DA:1302,1
DA:1305,1
DA:1306,1
DA:1308,1
DA:1309,1
DA:1310,1
DA:1311,1
DA:1312,1
DA:1313,1
DA:1314,1
DA:1316,1
DA:1317,1
DA:1319,1
DA:1321,1
DA:1323,1
DA:1324,1
DA:1325,1
DA:1326,1
DA:1328,1
DA:1330,1
DA:1331,1
DA:1332,1
DA:1333,1
DA:1335,1
DA:1338,1
DA:1339,1
DA:1341,1
DA:1342,1
DA:1343,1
DA:1345,1
DA:1346,1
DA:1348,1
DA:1349,1
DA:1350,1
DA:1351,1
DA:1353,1
DA:1355,1
DA:1356,1
DA:1357,1
DA:1358,1
DA:1360,1
DA:1363,1
DA:1364,1
DA:1366,1
DA:1367,1
DA:1370,1
DA:1371,1
DA:1372,1
DA:1373,1
DA:1374,1
DA:1375,1
DA:1376,1
DA:1378,1
DA:1379,1
DA:1380,1
DA:1381,1
DA:1382,1
DA:1383,1
DA:1384,1
DA:1385,1
DA:1386,1
DA:1387,1
DA:1388,1
DA:1389,1
DA:1390,1
DA:1391,1
DA:1392,1
DA:1394,1
DA:1395,1
DA:1396,1
DA:1397,1
DA:1400,1
DA:1401,1
DA:1402,1
DA:1403,1
DA:1404,1
DA:1405,1
DA:1406,1
DA:1407,1
DA:1408,1
DA:1409,1
DA:1410,1
DA:1411,1
DA:1412,1
DA:1413,1
DA:1415,1
DA:1416,1
DA:1417,1
DA:1418,1
DA:1419,1
DA:1420,1
DA:1421,1
DA:1423,1
DA:1424,0
DA:1425,1
DA:1426,1
DA:1429,1
DA:1430,1
DA:1432,1
DA:1433,1
DA:1434,1
DA:1435,1
DA:1436,1
DA:1437,1
DA:1438,1
DA:1439,1
DA:1440,1
DA:1441,1
DA:1443,1
DA:1445,1
DA:1446,1
DA:1447,1
DA:1448,1
DA:1449,1
DA:1450,1
DA:1451,1
DA:1452,1
DA:1455,1
DA:1456,1
DA:1458,1
DA:1459,1
DA:1460,1
DA:1461,1
DA:1462,1
DA:1463,1
DA:1464,1
DA:1465,1
DA:1466,1
DA:1467,1
DA:1468,1
DA:1469,2
DA:1470,2
DA:1471,2
DA:1472,2
DA:1473,2
DA:1474,2
DA:1475,1
DA:1476,1
DA:1478,1
DA:1479,1
DA:1480,1
DA:1481,1
DA:1483,1
DA:1484,1
DA:1485,1
DA:1486,1
DA:1487,1
DA:1490,1
DA:1491,1
DA:1493,1
DA:1494,1
DA:1495,1
DA:1496,1
DA:1497,1
DA:1498,1
DA:1499,1
DA:1500,1
DA:1501,1
DA:1503,1
DA:1505,1
DA:1506,1
DA:1507,1
DA:1510,1
DA:1511,1
DA:1513,1
DA:1514,1
DA:1515,1
DA:1516,1
DA:1517,1
DA:1518,1
DA:1519,1
DA:1520,1
DA:1521,1
DA:1522,1
DA:1523,1
DA:1524,1
DA:1525,1
DA:1526,1
DA:1528,1
DA:1529,1
DA:1530,1
DA:1533,1
DA:1534,1
DA:1535,1
DA:1536,1
DA:1540,1
DA:1541,1
DA:1544,1
DA:1545,1
DA:1546,1
DA:1547,1
DA:1548,1
DA:1552,1
DA:1554,1
DA:1555,1
DA:1556,1
DA:1557,1
DA:1558,1
DA:1561,1
DA:1562,1
DA:1564,1
DA:1565,1
DA:1566,1
DA:1567,1
DA:1568,1
DA:1569,1
DA:1570,1
DA:1571,1
DA:1572,1
DA:1573,1
DA:1574,1
DA:1575,1
DA:1576,1
DA:1577,1
DA:1578,1
DA:1579,1
DA:1580,1
DA:1581,1
DA:1582,1
DA:1583,1
DA:1585,1
DA:1586,1
DA:1587,1
DA:1588,1
DA:1589,1
DA:1590,1
DA:1591,1
DA:1592,1
DA:1593,1
DA:1594,1
DA:1595,1
DA:1596,1
DA:1597,1
DA:1598,1
DA:1599,1
DA:1600,1
DA:1601,1
DA:1602,1
DA:1603,1
DA:1604,1
DA:1605,1
DA:1606,1
DA:1608,1
DA:1609,1
DA:1610,1
DA:1611,1
DA:1612,1
DA:1614,1
DA:1615,1
DA:1616,1
DA:1617,1
DA:1618,1
DA:1620,1
DA:1621,1
DA:1622,1
DA:1623,1
DA:1624,1
DA:1625,1
DA:1626,1
DA:1627,1
DA:1628,1
DA:1629,1
DA:1632,1
DA:1633,1
DA:1634,1
DA:1635,1
DA:1638,1
DA:1639,1
DA:1644,1
DA:1646,1
DA:1647,1
DA:1648,1
DA:1649,1
DA:1650,1
DA:1651,1
DA:1653,1
DA:1654,1
DA:1655,1
DA:1656,1
DA:1657,1
DA:1658,1
DA:1660,1
DA:1661,1
DA:1662,1
DA:1663,1
DA:1664,1
DA:1665,1
DA:1666,1
DA:1667,1
DA:1668,1
DA:1669,1
DA:1670,1
DA:1671,1
DA:1673,1
DA:1674,1
DA:1675,1
DA:1676,1
DA:1677,1
DA:1678,1
DA:1679,1
DA:1680,1
DA:1681,1
DA:1682,1
DA:1683,1
DA:1685,1
DA:1686,0
DA:1689,1
DA:1690,1
DA:1693,1
DA:1694,1
DA:1695,1
DA:1696,1
DA:1699,1
DA:1700,1
DA:1701,1
DA:1703,1
DA:1705,1
DA:1706,1
DA:1707,1
DA:1708,1
DA:1709,1
DA:1710,1
DA:1712,1
DA:1713,1
DA:1714,1
DA:1715,1
DA:1716,1
DA:1717,1
DA:1718,1
DA:1719,1
DA:1720,1
DA:1721,1
DA:1722,1
DA:1723,1
DA:1724,1
DA:1726,1
DA:1728,1
DA:1729,1
DA:1731,1
DA:1732,1
DA:1733,1
DA:1734,1
DA:1737,1
DA:1738,1
DA:1741,1
DA:1742,1
DA:1743,1
DA:1744,1
DA:1746,1
DA:1748,1
DA:1749,1
DA:1750,1
DA:1751,1
DA:1752,1
DA:1753,1
DA:1755,1
DA:1756,1
DA:1759,1
DA:1760,1
DA:1761,1
DA:1762,1
DA:1765,1
DA:1768,1
DA:1769,1
DA:1770,1
DA:1773,1
DA:1774,1
DA:1775,1
DA:1776,1
DA:1777,1
DA:1778,1
DA:1779,1
DA:1780,1
DA:1781,1
DA:1782,1
DA:1783,1
DA:1784,1
DA:1785,1
DA:1787,1
DA:1790,1
DA:1791,1
DA:1792,1
DA:1793,1
DA:1796,1
DA:1797,1
DA:1798,1
DA:1799,1
DA:1800,1
DA:1801,1
DA:1802,1
DA:1803,1
DA:1804,1
DA:1805,1
DA:1808,1
DA:1809,1
DA:1810,1
DA:1811,1
DA:1812,1
DA:1813,1
DA:1814,1
DA:1816,1
DA:1818,1
DA:1819,1
DA:1821,1
DA:1823,1
DA:1825,1
DA:1826,1
DA:1827,1
DA:1828,1
DA:1832,1
DA:1833,1
DA:1836,1
DA:1837,1
DA:1838,1
DA:1839,1
DA:1842,1
DA:1845,1
DA:1846,1
DA:1847,1
DA:1850,1
DA:1851,1
DA:1852,1
DA:1853,1
DA:1855,1
DA:1856,1
DA:1857,1
DA:1858,1
DA:1859,1
DA:1860,1
DA:1861,1
DA:1862,1
DA:1863,1
DA:1864,1
DA:1865,1
DA:1866,1
DA:1867,1
DA:1869,1
DA:1871,1
DA:1873,1
DA:1874,0
DA:1876,1
DA:1878,1
DA:1879,0
DA:1882,1
DA:1883,1
DA:1886,1
DA:1887,1
DA:1888,1
DA:1889,1
DA:1892,1
DA:1895,1
DA:1896,1
DA:1897,1
DA:1900,1
DA:1904,1
DA:1905,1
DA:1906,1
DA:1907,1
DA:1909,0
DA:1911,1
DA:1913,0
DA:1915,1
DA:1917,1
DA:1918,1
DA:1921,1
DA:1922,1
DA:1923,1
DA:1924,1
DA:1927,1
DA:1929,1
DA:1930,1
DA:1931,1
DA:1932,1
DA:1933,1
DA:1934,1
DA:1935,1
DA:1936,1
DA:1937,1
DA:1938,1
DA:1939,1
DA:1940,1
DA:1941,1
DA:1942,1
DA:1943,1
DA:1944,1
DA:1945,1
DA:1946,1
DA:1947,1
DA:1948,1
DA:1949,1
DA:1950,1
DA:1951,1
DA:1953,1
DA:1954,1
DA:1955,1
DA:1956,1
DA:1957,1
DA:1958,1
DA:1959,1
DA:1960,1
DA:1961,1
DA:1962,1
DA:1963,1
DA:1964,1
DA:1965,1
DA:1966,1
DA:1968,1
DA:1969,1
DA:1970,1
DA:1971,1
DA:1972,1
DA:1973,1
DA:1974,1
DA:1975,1
DA:1976,1
DA:1977,1
DA:1978,1
DA:1979,1
DA:1980,1
DA:1981,1
DA:1982,1
DA:1983,1
DA:1984,1
DA:1985,1
DA:1987,1
DA:1988,1
DA:1989,1
DA:1990,1
DA:1991,1
DA:1993,1
DA:1994,1
DA:1997,1
DA:1998,1
DA:2000,1
DA:2001,1
DA:2002,1
DA:2003,1
DA:2004,1
DA:2005,1
DA:2006,1
DA:2007,1
DA:2008,1
DA:2010,1
DA:2011,1
DA:2012,1
DA:2015,1
DA:2016,1
DA:2017,1
DA:2018,1
DA:2022,1
DA:2023,1
DA:2024,1
DA:2025,1
DA:2026,1
DA:2027,1
DA:2028,1
DA:2029,1
DA:2030,1
DA:2031,1
DA:2032,1
DA:2033,1
DA:2035,1
DA:2036,1
DA:2038,1
DA:2039,1
DA:2040,1
DA:2041,1
DA:2042,1
DA:2043,1
DA:2044,1
DA:2045,1
DA:2046,1
DA:2047,1
DA:2048,1
DA:2049,1
DA:2050,1
DA:2051,1
DA:2052,1
DA:2053,1
DA:2055,1
DA:2056,1
DA:2058,1
DA:2059,1
DA:2060,1
DA:2061,1
DA:2062,1
DA:2063,1
DA:2064,1
DA:2065,1
DA:2066,1
DA:2067,1
DA:2068,1
DA:2069,1
DA:2070,1
DA:2071,1
DA:2072,1
DA:2073,1
DA:2074,1
DA:2076,1
DA:2077,1
DA:2078,1
BRF:0
BRH:0
LF:1359
LH:1255
end_of_record
SF:C:\Users\randy\Git\qsoripper-adif-refresh\src\rust\qsoripper-server\src\runtime_config.rs
FN:246,_RNvMNtCsujLUsjorcV_16qsoripper_server14runtime_configNtB2_20RuntimeConfigManager12swap_runtime
FN:110,_RNvMNtCsujLUsjorcV_16qsoripper_server14runtime_configNtB2_20RuntimeConfigManager13apply_request
FN:123,_RNvMNtCsujLUsjorcV_16qsoripper_server14runtime_configNtB2_20RuntimeConfigManager13reset_request
FN:141,_RNvMNtCsujLUsjorcV_16qsoripper_server14runtime_configNtB2_20RuntimeConfigManager14logbook_engine
FN:145,_RNvMNtCsujLUsjorcV_16qsoripper_server14runtime_configNtB2_20RuntimeConfigManager15logbook_context
FN:153,_RNvMNtCsujLUsjorcV_16qsoripper_server14runtime_configNtB2_20RuntimeConfigManager18lookup_coordinator
FN:157,_RNvMNtCsujLUsjorcV_16qsoripper_server14runtime_configNtB2_20RuntimeConfigManager22active_storage_backend
FN:242,_RNvMNtCsujLUsjorcV_16qsoripper_server14runtime_configNtB2_20RuntimeConfigManager25effective_station_profile
FN:161,_RNvMNtCsujLUsjorcV_16qsoripper_server14runtime_configNtB2_20RuntimeConfigManager26preview_config_file_values
FN:177,_RNvMNtCsujLUsjorcV_16qsoripper_server14runtime_configNtB2_20RuntimeConfigManager26replace_config_file_values
FN:80,_RNvMNtCsujLUsjorcV_16qsoripper_server14runtime_configNtB2_20RuntimeConfigManager27new_with_config_file_values
FN:238,_RNvMNtCsujLUsjorcV_16qsoripper_server14runtime_configNtB2_20RuntimeConfigManager32session_station_profile_override
FN:205,_RNvMNtCsujLUsjorcV_16qsoripper_server14runtime_configNtB2_20RuntimeConfigManager36set_session_station_profile_override
FN:76,_RNvMNtCsujLUsjorcV_16qsoripper_server14runtime_configNtB2_20RuntimeConfigManager3new
FN:64,_RNvMNtCsujLUsjorcV_16qsoripper_server14runtime_configNtB2_20RuntimeConfigManager53new_with_config_file_values_and_cli_storage_overrides
FN:95,_RNvMNtCsujLUsjorcV_16qsoripper_server14runtime_configNtB2_20RuntimeConfigManager8snapshot
FN:589,_RNvNtCsujLUsjorcV_16qsoripper_server14runtime_config10parse_bool
FN:849,_RNvNtCsujLUsjorcV_16qsoripper_server14runtime_config11build_value
FN:629,_RNvNtCsujLUsjorcV_16qsoripper_server14runtime_config12merge_values
FN:541,_RNvNtCsujLUsjorcV_16qsoripper_server14runtime_config13canonical_key
FN:514,_RNvNtCsujLUsjorcV_16qsoripper_server14runtime_config14apply_mutation
FN:783,_RNvNtCsujLUsjorcV_16qsoripper_server14runtime_config14build_snapshot
FN:550,_RNvNtCsujLUsjorcV_16qsoripper_server14runtime_config15normalize_value
FN:609,_RNvNtCsujLUsjorcV_16qsoripper_server14runtime_config17parse_bounded_f64
FN:638,_RNvNtCsujLUsjorcV_16qsoripper_server14runtime_config18merged_base_values
FN:754,_RNvNtCsujLUsjorcV_16qsoripper_server14runtime_config21build_lookup_provider
FN:499,_RNvNtCsujLUsjorcV_16qsoripper_server14runtime_config21capture_supported_env
FN:645,_RNvNtCsujLUsjorcV_16qsoripper_server14runtime_config22build_effective_values
FN:663,_RNvNtCsujLUsjorcV_16qsoripper_server14runtime_config22build_runtime_bindings
FN:599,_RNvNtCsujLUsjorcV_16qsoripper_server14runtime_config22parse_positive_integer
FN:722,_RNvNtCsujLUsjorcV_16qsoripper_server14runtime_config26parse_optional_bounded_f64
FN:686,_RNvNtCsujLUsjorcV_16qsoripper_server14runtime_config28build_active_station_profile
FN:622,_RNvNtCsujLUsjorcV_16qsoripper_server14runtime_config31is_station_positive_integer_key
FN:712,_RNvNtCsujLUsjorcV_16qsoripper_server14runtime_config31parse_optional_positive_integer
FN:655,_RNvNtCsujLUsjorcV_16qsoripper_server14runtime_config31station_profile_override_values
FN:836,_RNvNtCsujLUsjorcV_16qsoripper_server14runtime_config33normalize_optional_runtime_string
FN:734,_RNvNtCsujLUsjorcV_16qsoripper_server14runtime_config33parse_storage_options_from_values
FN:845,_RNvNtCsujLUsjorcV_16qsoripper_server14runtime_config35normalize_optional_station_callsign
FN:892,_RNvNtNtCsujLUsjorcV_16qsoripper_server14runtime_config5tests10sample_qso
FN:1122,_RNvNtNtCsujLUsjorcV_16qsoripper_server14runtime_config5tests15assert_contains
FN:907,_RNvNtNtCsujLUsjorcV_16qsoripper_server14runtime_config5tests18unique_sqlite_path
FN:922,_RNvNtNtCsujLUsjorcV_16qsoripper_server14runtime_config5testss_42runtime_manager_hot_swaps_storage_backends
FN:1090,_RNvNtNtCsujLUsjorcV_16qsoripper_server14runtime_config5testss_49runtime_manager_applies_station_profile_overrides
FN:1130,_RNvNtNtCsujLUsjorcV_16qsoripper_server14runtime_config5testss_56runtime_manager_applies_process_session_station_override
FN:1024,_RNvNtNtCsujLUsjorcV_16qsoripper_server14runtime_config5testss_58runtime_manager_exposes_active_station_profile_in_snapshot
FN:1071,_RNvNtNtCsujLUsjorcV_16qsoripper_server14runtime_config5testss_69runtime_manager_prefers_cli_storage_override_over_config_file_storage
FN:993,_RNvNtNtCsujLUsjorcV_16qsoripper_server14runtime_config5testss_73runtime_manager_updates_lookup_provider_summary_when_capture_only_changes
FN:1045,_RNvNtNtCsujLUsjorcV_16qsoripper_server14runtime_config5testss_75runtime_manager_prefers_config_file_storage_when_no_cli_override_is_present
FN:210,_RNCNCNvMNtCsujLUsjorcV_16qsoripper_server14runtime_configNtB6_20RuntimeConfigManager36set_session_station_profile_override00B8_
FN:801,_RNCNCNvNtCsujLUsjorcV_16qsoripper_server14runtime_config14build_snapshot00B7_
FN:249,_RNCNvMNtCsujLUsjorcV_16qsoripper_server14runtime_configNtB4_20RuntimeConfigManager12swap_runtime0B6_
FN:113,_RNCNvMNtCsujLUsjorcV_16qsoripper_server14runtime_configNtB4_20RuntimeConfigManager13apply_request0B6_
FN:126,_RNCNvMNtCsujLUsjorcV_16qsoripper_server14runtime_configNtB4_20RuntimeConfigManager13reset_request0B6_
FN:141,_RNCNvMNtCsujLUsjorcV_16qsoripper_server14runtime_configNtB4_20RuntimeConfigManager14logbook_engine0B6_
FN:145,_RNCNvMNtCsujLUsjorcV_16qsoripper_server14runtime_configNtB4_20RuntimeConfigManager15logbook_context0B6_
FN:153,_RNCNvMNtCsujLUsjorcV_16qsoripper_server14runtime_configNtB4_20RuntimeConfigManager18lookup_coordinator0B6_
FN:157,_RNCNvMNtCsujLUsjorcV_16qsoripper_server14runtime_configNtB4_20RuntimeConfigManager22active_storage_backend0B6_
FN:242,_RNCNvMNtCsujLUsjorcV_16qsoripper_server14runtime_configNtB4_20RuntimeConfigManager25effective_station_profile0B6_
FN:164,_RNCNvMNtCsujLUsjorcV_16qsoripper_server14runtime_configNtB4_20RuntimeConfigManager26preview_config_file_values0B6_
FN:180,_RNCNvMNtCsujLUsjorcV_16qsoripper_server14runtime_configNtB4_20RuntimeConfigManager26replace_config_file_values0B6_
FN:238,_RNCNvMNtCsujLUsjorcV_16qsoripper_server14runtime_configNtB4_20RuntimeConfigManager32session_station_profile_override0B6_
FN:208,_RNCNvMNtCsujLUsjorcV_16qsoripper_server14runtime_configNtB4_20RuntimeConfigManager36set_session_station_profile_override0B6_
FN:95,_RNCNvMNtCsujLUsjorcV_16qsoripper_server14runtime_configNtB4_20RuntimeConfigManager8snapshot0B6_
FN:857,_RNCNvNtCsujLUsjorcV_16qsoripper_server14runtime_config11build_value0B5_
FN:545,_RNCNvNtCsujLUsjorcV_16qsoripper_server14runtime_config13canonical_key0B5_
FN:547,_RNCNvNtCsujLUsjorcV_16qsoripper_server14runtime_config13canonical_keys0_0B5_
FN:520,_RNCNvNtCsujLUsjorcV_16qsoripper_server14runtime_config14apply_mutation0B5_
FN:526,_RNCNvNtCsujLUsjorcV_16qsoripper_server14runtime_config14apply_mutations_0B5_
FN:793,_RNCNvNtCsujLUsjorcV_16qsoripper_server14runtime_config14build_snapshot0B5_
FN:807,_RNCNvNtCsujLUsjorcV_16qsoripper_server14runtime_config14build_snapshots_0B5_
FN:558,_RNCNvNtCsujLUsjorcV_16qsoripper_server14runtime_config15normalize_value0B5_
FN:561,_RNCNvNtCsujLUsjorcV_16qsoripper_server14runtime_config15normalize_values0_0B5_
FN:571,_RNCNvNtCsujLUsjorcV_16qsoripper_server14runtime_config15normalize_values1_0B5_
FN:572,_RNCNvNtCsujLUsjorcV_16qsoripper_server14runtime_config15normalize_values2_0B5_
FN:576,_RNCNvNtCsujLUsjorcV_16qsoripper_server14runtime_config15normalize_values3_0B5_
FN:577,_RNCNvNtCsujLUsjorcV_16qsoripper_server14runtime_config15normalize_values4_0B5_
FN:579,_RNCNvNtCsujLUsjorcV_16qsoripper_server14runtime_config15normalize_values5_0B5_
FN:581,_RNCNvNtCsujLUsjorcV_16qsoripper_server14runtime_config15normalize_values6_0B5_
FN:583,_RNCNvNtCsujLUsjorcV_16qsoripper_server14runtime_config15normalize_values7_0B5_
FN:559,_RNCNvNtCsujLUsjorcV_16qsoripper_server14runtime_config15normalize_values_0B5_
FN:612,_RNCNvNtCsujLUsjorcV_16qsoripper_server14runtime_config17parse_bounded_f640B5_
FN:755,_RNCNvNtCsujLUsjorcV_16qsoripper_server14runtime_config21build_lookup_provider0B5_
FN:665,_RNCNvNtCsujLUsjorcV_16qsoripper_server14runtime_config22build_runtime_bindings0B5_
FN:667,_RNCNvNtCsujLUsjorcV_16qsoripper_server14runtime_config22build_runtime_bindingss_0B5_
FN:602,_RNCNvNtCsujLUsjorcV_16qsoripper_server14runtime_config22parse_positive_integer0B5_
FN:730,_RNCNvNtCsujLUsjorcV_16qsoripper_server14runtime_config26parse_optional_bounded_f640B5_
FN:718,_RNCNvNtCsujLUsjorcV_16qsoripper_server14runtime_config31parse_optional_positive_integer0B5_
FN:745,_RNCNvNtCsujLUsjorcV_16qsoripper_server14runtime_config33parse_storage_options_from_values0B5_
FN:846,_RNCNvNtCsujLUsjorcV_16qsoripper_server14runtime_config35normalize_optional_station_callsign0B5_
FN:1156,_RNCNCNvNtNtCsujLUsjorcV_16qsoripper_server14runtime_config5testss_56runtime_manager_applies_process_session_station_override00B9_
FN:1173,_RNCNCNvNtNtCsujLUsjorcV_16qsoripper_server14runtime_config5testss_56runtime_manager_applies_process_session_station_override0s0_0B9_
FN:1161,_RNCNCNvNtNtCsujLUsjorcV_16qsoripper_server14runtime_config5testss_56runtime_manager_applies_process_session_station_override0s_0B9_
FN:1064,_RNCNCNvNtNtCsujLUsjorcV_16qsoripper_server14runtime_config5testss_75runtime_manager_prefers_config_file_storage_when_no_cli_override_is_present00B9_
FN:922,_RNCNvNtNtCsujLUsjorcV_16qsoripper_server14runtime_config5testss_42runtime_manager_hot_swaps_storage_backends0B7_
FN:1090,_RNCNvNtNtCsujLUsjorcV_16qsoripper_server14runtime_config5testss_49runtime_manager_applies_station_profile_overrides0B7_
FN:1130,_RNCNvNtNtCsujLUsjorcV_16qsoripper_server14runtime_config5testss_56runtime_manager_applies_process_session_station_override0B7_
FN:1024,_RNCNvNtNtCsujLUsjorcV_16qsoripper_server14runtime_config5testss_58runtime_manager_exposes_active_station_profile_in_snapshot0B7_
FN:1071,_RNCNvNtNtCsujLUsjorcV_16qsoripper_server14runtime_config5testss_69runtime_manager_prefers_cli_storage_override_over_config_file_storage0B7_
FN:993,_RNCNvNtNtCsujLUsjorcV_16qsoripper_server14runtime_config5testss_73runtime_manager_updates_lookup_provider_summary_when_capture_only_changes0B7_
FN:1045,_RNCNvNtNtCsujLUsjorcV_16qsoripper_server14runtime_config5testss_75runtime_manager_prefers_config_file_storage_when_no_cli_override_is_present0B7_
FNDA:5,_RNvMNtCsujLUsjorcV_16qsoripper_server14runtime_configNtB2_20RuntimeConfigManager12swap_runtime
FNDA:4,_RNvMNtCsujLUsjorcV_16qsoripper_server14runtime_configNtB2_20RuntimeConfigManager13apply_request
FNDA:1,_RNvMNtCsujLUsjorcV_16qsoripper_server14runtime_configNtB2_20RuntimeConfigManager13reset_request
FNDA:24,_RNvMNtCsujLUsjorcV_16qsoripper_server14runtime_configNtB2_20RuntimeConfigManager14logbook_engine
FNDA:20,_RNvMNtCsujLUsjorcV_16qsoripper_server14runtime_configNtB2_20RuntimeConfigManager15logbook_context
FNDA:3,_RNvMNtCsujLUsjorcV_16qsoripper_server14runtime_configNtB2_20RuntimeConfigManager18lookup_coordinator
FNDA:1,_RNvMNtCsujLUsjorcV_16qsoripper_server14runtime_configNtB2_20RuntimeConfigManager22active_storage_backend
FNDA:2,_RNvMNtCsujLUsjorcV_16qsoripper_server14runtime_configNtB2_20RuntimeConfigManager25effective_station_profile
FNDA:7,_RNvMNtCsujLUsjorcV_16qsoripper_server14runtime_configNtB2_20RuntimeConfigManager26preview_config_file_values
FNDA:7,_RNvMNtCsujLUsjorcV_16qsoripper_server14runtime_configNtB2_20RuntimeConfigManager26replace_config_file_values
FNDA:31,_RNvMNtCsujLUsjorcV_16qsoripper_server14runtime_configNtB2_20RuntimeConfigManager27new_with_config_file_values
FNDA:2,_RNvMNtCsujLUsjorcV_16qsoripper_server14runtime_configNtB2_20RuntimeConfigManager32session_station_profile_override
FNDA:3,_RNvMNtCsujLUsjorcV_16qsoripper_server14runtime_configNtB2_20RuntimeConfigManager36set_session_station_profile_override
FNDA:27,_RNvMNtCsujLUsjorcV_16qsoripper_server14runtime_configNtB2_20RuntimeConfigManager3new
FNDA:3,_RNvMNtCsujLUsjorcV_16qsoripper_server14runtime_configNtB2_20RuntimeConfigManager53new_with_config_file_values_and_cli_storage_overrides
FNDA:21,_RNvMNtCsujLUsjorcV_16qsoripper_server14runtime_configNtB2_20RuntimeConfigManager8snapshot
FNDA:1,_RNvNtCsujLUsjorcV_16qsoripper_server14runtime_config10parse_bool
FNDA:483,_RNvNtCsujLUsjorcV_16qsoripper_server14runtime_config11build_value
FNDA:163,_RNvNtCsujLUsjorcV_16qsoripper_server14runtime_config12merge_values
FNDA:9,_RNvNtCsujLUsjorcV_16qsoripper_server14runtime_config13canonical_key
FNDA:7,_RNvNtCsujLUsjorcV_16qsoripper_server14runtime_config14apply_mutation
FNDA:21,_RNvNtCsujLUsjorcV_16qsoripper_server14runtime_config14build_snapshot
FNDA:7,_RNvNtCsujLUsjorcV_16qsoripper_server14runtime_config15normalize_value
FNDA:2,_RNvNtCsujLUsjorcV_16qsoripper_server14runtime_config17parse_bounded_f64
FNDA:74,_RNvNtCsujLUsjorcV_16qsoripper_server14runtime_config18merged_base_values
FNDA:53,_RNvNtCsujLUsjorcV_16qsoripper_server14runtime_config21build_lookup_provider
FNDA:3,_RNvNtCsujLUsjorcV_16qsoripper_server14runtime_config21capture_supported_env
FNDA:43,_RNvNtCsujLUsjorcV_16qsoripper_server14runtime_config22build_effective_values
FNDA:53,_RNvNtCsujLUsjorcV_16qsoripper_server14runtime_config22build_runtime_bindings
FNDA:0,_RNvNtCsujLUsjorcV_16qsoripper_server14runtime_config22parse_positive_integer
FNDA:106,_RNvNtCsujLUsjorcV_16qsoripper_server14runtime_config26parse_optional_bounded_f64
FNDA:53,_RNvNtCsujLUsjorcV_16qsoripper_server14runtime_config28build_active_station_profile
FNDA:4,_RNvNtCsujLUsjorcV_16qsoripper_server14runtime_config31is_station_positive_integer_key
FNDA:159,_RNvNtCsujLUsjorcV_16qsoripper_server14runtime_config31parse_optional_positive_integer
FNDA:43,_RNvNtCsujLUsjorcV_16qsoripper_server14runtime_config31station_profile_override_values
FNDA:18,_RNvNtCsujLUsjorcV_16qsoripper_server14runtime_config33normalize_optional_runtime_string
FNDA:53,_RNvNtCsujLUsjorcV_16qsoripper_server14runtime_config33parse_storage_options_from_values
FNDA:4,_RNvNtCsujLUsjorcV_16qsoripper_server14runtime_config35normalize_optional_station_callsign
FNDA:1,_RNvNtNtCsujLUsjorcV_16qsoripper_server14runtime_config5tests10sample_qso
FNDA:2,_RNvNtNtCsujLUsjorcV_16qsoripper_server14runtime_config5tests15assert_contains
FNDA:3,_RNvNtNtCsujLUsjorcV_16qsoripper_server14runtime_config5tests18unique_sqlite_path
FNDA:1,_RNvNtNtCsujLUsjorcV_16qsoripper_server14runtime_config5testss_42runtime_manager_hot_swaps_storage_backends
FNDA:1,_RNvNtNtCsujLUsjorcV_16qsoripper_server14runtime_config5testss_49runtime_manager_applies_station_profile_overrides
FNDA:1,_RNvNtNtCsujLUsjorcV_16qsoripper_server14runtime_config5testss_56runtime_manager_applies_process_session_station_override
FNDA:1,_RNvNtNtCsujLUsjorcV_16qsoripper_server14runtime_config5testss_58runtime_manager_exposes_active_station_profile_in_snapshot
FNDA:1,_RNvNtNtCsujLUsjorcV_16qsoripper_server14runtime_config5testss_69runtime_manager_prefers_cli_storage_override_over_config_file_storage
FNDA:1,_RNvNtNtCsujLUsjorcV_16qsoripper_server14runtime_config5testss_73runtime_manager_updates_lookup_provider_summary_when_capture_only_changes
FNDA:1,_RNvNtNtCsujLUsjorcV_16qsoripper_server14runtime_config5testss_75runtime_manager_prefers_config_file_storage_when_no_cli_override_is_present
FNDA:2,_RNCNCNvMNtCsujLUsjorcV_16qsoripper_server14runtime_configNtB6_20RuntimeConfigManager36set_session_station_profile_override00B8_
FNDA:84,_RNCNCNvNtCsujLUsjorcV_16qsoripper_server14runtime_config14build_snapshot00B7_
FNDA:5,_RNCNvMNtCsujLUsjorcV_16qsoripper_server14runtime_configNtB4_20RuntimeConfigManager12swap_runtime0B6_
FNDA:4,_RNCNvMNtCsujLUsjorcV_16qsoripper_server14runtime_configNtB4_20RuntimeConfigManager13apply_request0B6_
FNDA:1,_RNCNvMNtCsujLUsjorcV_16qsoripper_server14runtime_configNtB4_20RuntimeConfigManager13reset_request0B6_
FNDA:24,_RNCNvMNtCsujLUsjorcV_16qsoripper_server14runtime_configNtB4_20RuntimeConfigManager14logbook_engine0B6_
FNDA:20,_RNCNvMNtCsujLUsjorcV_16qsoripper_server14runtime_configNtB4_20RuntimeConfigManager15logbook_context0B6_
FNDA:3,_RNCNvMNtCsujLUsjorcV_16qsoripper_server14runtime_configNtB4_20RuntimeConfigManager18lookup_coordinator0B6_
FNDA:1,_RNCNvMNtCsujLUsjorcV_16qsoripper_server14runtime_configNtB4_20RuntimeConfigManager22active_storage_backend0B6_
FNDA:2,_RNCNvMNtCsujLUsjorcV_16qsoripper_server14runtime_configNtB4_20RuntimeConfigManager25effective_station_profile0B6_
FNDA:7,_RNCNvMNtCsujLUsjorcV_16qsoripper_server14runtime_configNtB4_20RuntimeConfigManager26preview_config_file_values0B6_
FNDA:7,_RNCNvMNtCsujLUsjorcV_16qsoripper_server14runtime_configNtB4_20RuntimeConfigManager26replace_config_file_values0B6_
FNDA:2,_RNCNvMNtCsujLUsjorcV_16qsoripper_server14runtime_configNtB4_20RuntimeConfigManager32session_station_profile_override0B6_
FNDA:3,_RNCNvMNtCsujLUsjorcV_16qsoripper_server14runtime_configNtB4_20RuntimeConfigManager36set_session_station_profile_override0B6_
FNDA:21,_RNCNvMNtCsujLUsjorcV_16qsoripper_server14runtime_configNtB4_20RuntimeConfigManager8snapshot0B6_
FNDA:391,_RNCNvNtCsujLUsjorcV_16qsoripper_server14runtime_config11build_value0B5_
FNDA:60,_RNCNvNtCsujLUsjorcV_16qsoripper_server14runtime_config13canonical_key0B5_
FNDA:0,_RNCNvNtCsujLUsjorcV_16qsoripper_server14runtime_config13canonical_keys0_0B5_
FNDA:0,_RNCNvNtCsujLUsjorcV_16qsoripper_server14runtime_config14apply_mutation0B5_
FNDA:0,_RNCNvNtCsujLUsjorcV_16qsoripper_server14runtime_config14apply_mutations_0B5_
FNDA:483,_RNCNvNtCsujLUsjorcV_16qsoripper_server14runtime_config14build_snapshot0B5_
FNDA:483,_RNCNvNtCsujLUsjorcV_16qsoripper_server14runtime_config14build_snapshots_0B5_
FNDA:0,_RNCNvNtCsujLUsjorcV_16qsoripper_server14runtime_config15normalize_value0B5_
FNDA:1,_RNCNvNtCsujLUsjorcV_16qsoripper_server14runtime_config15normalize_values0_0B5_
FNDA:0,_RNCNvNtCsujLUsjorcV_16qsoripper_server14runtime_config15normalize_values1_0B5_
FNDA:0,_RNCNvNtCsujLUsjorcV_16qsoripper_server14runtime_config15normalize_values2_0B5_
FNDA:0,_RNCNvNtCsujLUsjorcV_16qsoripper_server14runtime_config15normalize_values3_0B5_
FNDA:0,_RNCNvNtCsujLUsjorcV_16qsoripper_server14runtime_config15normalize_values4_0B5_
FNDA:0,_RNCNvNtCsujLUsjorcV_16qsoripper_server14runtime_config15normalize_values5_0B5_
FNDA:1,_RNCNvNtCsujLUsjorcV_16qsoripper_server14runtime_config15normalize_values6_0B5_
FNDA:0,_RNCNvNtCsujLUsjorcV_16qsoripper_server14runtime_config15normalize_values7_0B5_
FNDA:2,_RNCNvNtCsujLUsjorcV_16qsoripper_server14runtime_config15normalize_values_0B5_
FNDA:0,_RNCNvNtCsujLUsjorcV_16qsoripper_server14runtime_config17parse_bounded_f640B5_
FNDA:124,_RNCNvNtCsujLUsjorcV_16qsoripper_server14runtime_config21build_lookup_provider0B5_
FNDA:0,_RNCNvNtCsujLUsjorcV_16qsoripper_server14runtime_config22build_runtime_bindings0B5_
FNDA:0,_RNCNvNtCsujLUsjorcV_16qsoripper_server14runtime_config22build_runtime_bindingss_0B5_
FNDA:0,_RNCNvNtCsujLUsjorcV_16qsoripper_server14runtime_config22parse_positive_integer0B5_
FNDA:1,_RNCNvNtCsujLUsjorcV_16qsoripper_server14runtime_config26parse_optional_bounded_f640B5_
FNDA:0,_RNCNvNtCsujLUsjorcV_16qsoripper_server14runtime_config31parse_optional_positive_integer0B5_
FNDA:32,_RNCNvNtCsujLUsjorcV_16qsoripper_server14runtime_config33parse_storage_options_from_values0B5_
FNDA:3,_RNCNvNtCsujLUsjorcV_16qsoripper_server14runtime_config35normalize_optional_station_callsign0B5_
FNDA:1,_RNCNCNvNtNtCsujLUsjorcV_16qsoripper_server14runtime_config5testss_56runtime_manager_applies_process_session_station_override00B9_
FNDA:1,_RNCNCNvNtNtCsujLUsjorcV_16qsoripper_server14runtime_config5testss_56runtime_manager_applies_process_session_station_override0s0_0B9_
FNDA:1,_RNCNCNvNtNtCsujLUsjorcV_16qsoripper_server14runtime_config5testss_56runtime_manager_applies_process_session_station_override0s_0B9_
FNDA:2,_RNCNCNvNtNtCsujLUsjorcV_16qsoripper_server14runtime_config5testss_75runtime_manager_prefers_config_file_storage_when_no_cli_override_is_present00B9_
FNDA:1,_RNCNvNtNtCsujLUsjorcV_16qsoripper_server14runtime_config5testss_42runtime_manager_hot_swaps_storage_backends0B7_
FNDA:1,_RNCNvNtNtCsujLUsjorcV_16qsoripper_server14runtime_config5testss_49runtime_manager_applies_station_profile_overrides0B7_
FNDA:1,_RNCNvNtNtCsujLUsjorcV_16qsoripper_server14runtime_config5testss_56runtime_manager_applies_process_session_station_override0B7_
FNDA:1,_RNCNvNtNtCsujLUsjorcV_16qsoripper_server14runtime_config5testss_58runtime_manager_exposes_active_station_profile_in_snapshot0B7_
FNDA:1,_RNCNvNtNtCsujLUsjorcV_16qsoripper_server14runtime_config5testss_69runtime_manager_prefers_cli_storage_override_over_config_file_storage0B7_
FNDA:1,_RNCNvNtNtCsujLUsjorcV_16qsoripper_server14runtime_config5testss_73runtime_manager_updates_lookup_provider_summary_when_capture_only_changes0B7_
FNDA:1,_RNCNvNtNtCsujLUsjorcV_16qsoripper_server14runtime_config5testss_75runtime_manager_prefers_config_file_storage_when_no_cli_override_is_present0B7_
FNF:100
FNH:84
DA:64,3
DA:65,3
DA:66,3
DA:67,3
DA:68,3
DA:69,3
DA:70,3
DA:71,3
DA:73,3
DA:76,27
DA:77,27
DA:78,27
DA:80,31
DA:81,31
DA:82,31
DA:83,31
DA:84,31
DA:85,31
DA:86,31
DA:87,31
DA:88,31
DA:89,31
DA:90,31
DA:91,31
DA:92,31
DA:93,31
DA:95,21
DA:96,21
DA:97,21
DA:98,21
DA:99,21
DA:100,21
DA:101,21
DA:102,21
DA:103,21
DA:104,21
DA:105,21
DA:106,21
DA:108,21
DA:110,4
DA:111,4
DA:112,4
DA:113,4
DA:114,4
DA:116,11
DA:117,7
DA:120,4
DA:121,4
DA:123,1
DA:124,1
DA:125,1
DA:126,1
DA:127,1
DA:129,1
DA:130,0
DA:131,0
DA:132,3
DA:133,2
DA:134,2
DA:138,1
DA:139,1
DA:141,24
DA:142,24
DA:143,24
DA:145,20
DA:146,20
DA:147,20
DA:148,20
DA:149,20
DA:150,20
DA:151,20
DA:153,3
DA:154,3
DA:155,3
DA:157,1
DA:158,1
DA:159,1
DA:161,7
DA:162,7
DA:163,7
DA:164,7
DA:165,7
DA:166,7
DA:167,7
DA:168,7
DA:169,7
DA:170,7
DA:171,7
DA:172,7
DA:174,7
DA:175,7
DA:177,7
DA:178,7
DA:179,7
DA:180,7
DA:181,7
DA:182,7
DA:183,7
DA:184,7
DA:185,7
DA:186,7
DA:187,7
DA:188,7
DA:190,7
DA:193,7
DA:194,7
DA:198,7
DA:199,7
DA:202,7
DA:203,7
DA:205,3
DA:206,3
DA:207,3
DA:208,3
DA:209,3
DA:210,3
DA:211,2
DA:212,2
DA:216,2
DA:217,3
DA:218,3
DA:219,3
DA:220,3
DA:221,3
DA:222,3
DA:223,3
DA:226,3
DA:227,3
DA:231,3
DA:232,3
DA:235,3
DA:236,3
DA:238,2
DA:239,2
DA:240,2
DA:242,2
DA:243,2
DA:244,2
DA:246,5
DA:247,5
DA:248,5
DA:249,5
DA:250,5
DA:251,5
DA:252,5
DA:253,5
DA:254,5
DA:255,5
DA:256,5
DA:257,5
DA:259,5
DA:262,5
DA:263,5
DA:267,5
DA:268,5
DA:271,5
DA:272,5
DA:499,3
DA:500,3
DA:502,72
DA:503,69
DA:504,1
DA:505,1
DA:506,1
DA:507,1
DA:508,68
DA:511,3
DA:512,3
DA:514,7
DA:515,7
DA:516,7
DA:517,7
DA:518,7
DA:519,7
DA:520,7
DA:522,7
DA:524,7
DA:525,7
DA:526,7
DA:527,7
DA:528,7
DA:530,0
DA:531,0
DA:532,0
DA:534,0
DA:538,7
DA:539,7
DA:541,9
DA:542,9
DA:543,9
DA:544,9
DA:545,60
DA:546,9
DA:547,9
DA:548,9
DA:550,7
DA:551,7
DA:552,7
DA:553,0
DA:554,7
DA:556,7
DA:557,2
DA:558,2
DA:559,2
DA:560,5
DA:561,1
DA:562,1
DA:563,1
DA:565,0
DA:567,1
DA:568,4
DA:569,0
DA:570,0
DA:571,0
DA:572,0
DA:573,4
DA:574,0
DA:575,0
DA:576,0
DA:577,0
DA:578,4
DA:579,0
DA:580,4
DA:581,1
DA:582,3
DA:583,0
DA:585,3
DA:587,7
DA:589,1
DA:590,1
DA:591,1
DA:592,0
DA:593,0
DA:594,0
DA:595,0
DA:597,1
DA:599,0
DA:600,0
DA:601,0
DA:602,0
DA:603,0
DA:604,0
DA:605,0
DA:606,0
DA:607,0
DA:609,2
DA:610,2
DA:611,2
DA:612,2
DA:613,2
DA:614,0
DA:615,2
DA:616,2
DA:617,0
DA:618,2
DA:619,2
DA:620,2
DA:622,4
DA:623,0
DA:624,4
DA:625,4
DA:627,4
DA:629,163
DA:630,163
DA:631,163
DA:632,163
DA:633,163
DA:634,163
DA:635,163
DA:636,163
DA:638,74
DA:639,74
DA:640,74
DA:641,74
DA:642,74
DA:643,74
DA:645,43
DA:646,43
DA:647,43
DA:648,43
DA:649,43
DA:650,43
DA:651,43
DA:652,43
DA:653,43
DA:655,43
DA:656,43
DA:657,43
DA:658,3
DA:659,40
DA:660,43
DA:661,43
DA:663,53
DA:664,53
DA:665,53
DA:667,53
DA:668,53
DA:669,53
DA:670,53
DA:671,53
DA:672,53
DA:673,53
DA:675,53
DA:677,53
DA:678,53
DA:679,53
DA:680,53
DA:681,53
DA:682,53
DA:683,53
DA:684,53
DA:686,53
DA:687,53
DA:688,53
DA:689,53
DA:690,53
DA:691,53
DA:692,53
DA:693,53
DA:694,53
DA:695,53
DA:696,53
DA:697,53
DA:698,53
DA:699,53
DA:700,53
DA:701,53
DA:702,53
DA:703,53
DA:704,53
DA:705,53
DA:706,53
DA:709,53
DA:710,53
DA:712,159
DA:713,159
DA:714,159
DA:715,159
DA:716,159
DA:717,159
DA:718,159
DA:719,159
DA:720,159
DA:722,106
DA:723,106
DA:724,106
DA:725,106
DA:726,106
DA:727,106
DA:728,106
DA:729,106
DA:730,106
DA:731,106
DA:732,106
DA:734,53
DA:735,53
DA:736,53
DA:737,53
DA:738,53
DA:739,53
DA:740,53
DA:741,0
DA:742,53
DA:743,53
DA:744,53
DA:745,53
DA:746,53
DA:748,53
DA:749,53
DA:750,53
DA:751,53
DA:752,53
DA:754,53
DA:755,124
DA:756,2
DA:757,2
DA:758,2
DA:759,1
DA:761,1
DA:763,2
DA:765,0
DA:766,0
DA:767,0
DA:768,0
DA:769,0
DA:770,0
DA:773,51
DA:774,51
DA:775,51
DA:776,51
DA:777,51
DA:778,51
DA:781,53
DA:783,21
DA:784,21
DA:785,21
DA:786,21
DA:787,21
DA:788,21
DA:789,21
DA:790,21
DA:791,21
DA:792,21
DA:793,483
DA:794,483
DA:795,483
DA:796,483
DA:797,483
DA:798,483
DA:799,483
DA:800,483
DA:801,483
DA:802,483
DA:803,483
DA:804,21
DA:805,21
DA:806,21
DA:807,483
DA:808,21
DA:809,21
DA:811,21
DA:812,19
DA:813,2
DA:814,2
DA:815,2
DA:816,2
DA:817,2
DA:818,19
DA:819,21
DA:820,1
DA:821,1
DA:822,1
DA:823,1
DA:824,20
DA:826,21
DA:827,21
DA:828,21
DA:829,21
DA:830,21
DA:831,21
DA:832,21
DA:833,21
DA:834,21
DA:836,18
DA:837,18
DA:838,7
DA:839,0
DA:841,7
DA:843,18
DA:845,4
DA:846,4
DA:847,4
DA:849,483
DA:850,483
DA:851,483
DA:852,483
DA:853,483
DA:854,483
DA:855,483
DA:856,483
DA:857,483
DA:858,483
DA:859,483
DA:860,6
DA:862,477
DA:866,483
DA:867,483
DA:868,483
DA:869,483
DA:870,483
DA:871,483
DA:873,483
DA:892,1
DA:893,1
DA:894,1
DA:895,1
DA:896,1
DA:897,1
DA:898,1
DA:899,1
DA:900,1
DA:901,1
DA:902,1
DA:903,1
DA:904,1
DA:905,1
DA:907,3
DA:908,3
DA:909,3
DA:910,3
DA:911,3
DA:912,3
DA:913,3
DA:914,3
DA:915,3
DA:916,3
DA:917,3
DA:918,3
DA:919,3
DA:922,1
DA:923,1
DA:924,1
DA:925,1
DA:927,1
DA:928,1
DA:929,1
DA:930,1
DA:931,1
DA:932,1
DA:933,1
DA:934,1
DA:935,1
DA:936,1
DA:937,1
DA:938,1
DA:939,1
DA:940,1
DA:941,1
DA:942,1
DA:943,1
DA:944,1
DA:945,1
DA:947,1
DA:948,1
DA:949,1
DA:950,1
DA:951,1
DA:952,1
DA:954,1
DA:955,1
DA:956,1
DA:957,1
DA:958,1
DA:959,1
DA:960,1
DA:961,1
DA:962,1
DA:963,1
DA:964,1
DA:966,1
DA:967,1
DA:968,1
DA:969,1
DA:970,1
DA:971,1
DA:972,1
DA:974,1
DA:975,1
DA:976,1
DA:977,1
DA:978,1
DA:979,1
DA:980,1
DA:981,1
DA:982,1
DA:983,1
DA:984,1
DA:986,1
DA:987,1
DA:988,1
DA:989,1
DA:990,1
DA:993,1
DA:994,1
DA:995,1
DA:996,1
DA:997,1
DA:998,1
DA:1000,1
DA:1001,1
DA:1002,1
DA:1005,1
DA:1006,1
DA:1007,1
DA:1009,1
DA:1010,1
DA:1011,1
DA:1012,1
DA:1013,1
DA:1014,1
DA:1015,1
DA:1016,1
DA:1017,1
DA:1018,1
DA:1020,1
DA:1021,1
DA:1024,1
DA:1025,1
DA:1026,1
DA:1027,1
DA:1028,1
DA:1029,1
DA:1031,1
DA:1032,1
DA:1034,1
DA:1035,1
DA:1036,1
DA:1038,1
DA:1039,1
DA:1040,1
DA:1041,1
DA:1042,1
DA:1045,1
DA:1046,1
DA:1047,1
DA:1048,1
DA:1049,1
DA:1051,1
DA:1052,1
DA:1053,1
DA:1055,1
DA:1057,1
DA:1058,1
DA:1059,1
DA:1060,1
DA:1061,1
DA:1062,1
DA:1063,1
DA:1064,2
DA:1065,1
DA:1066,1
DA:1067,1
DA:1068,1
DA:1071,1
DA:1072,1
DA:1073,1
DA:1074,1
DA:1076,1
DA:1077,1
DA:1079,1
DA:1080,1
DA:1081,1
DA:1083,1
DA:1085,1
DA:1086,1
DA:1087,1
DA:1090,1
DA:1091,1
DA:1093,1
DA:1094,1
DA:1095,1
DA:1096,1
DA:1097,1
DA:1098,1
DA:1099,1
DA:1100,1
DA:1101,1
DA:1102,1
DA:1103,1
DA:1104,1
DA:1105,1
DA:1106,1
DA:1107,1
DA:1108,1
DA:1109,1
DA:1110,1
DA:1111,1
DA:1112,1
DA:1113,1
DA:1114,1
DA:1115,1
DA:1117,1
DA:1118,1
DA:1119,1
DA:1120,1
DA:1122,2
DA:1123,2
DA:1124,2
DA:1125,0
DA:1127,2
DA:1130,1
DA:1131,1
DA:1132,1
DA:1133,1
DA:1134,1
DA:1135,1
DA:1136,1
DA:1138,1
DA:1139,1
DA:1140,1
DA:1141,1
DA:1142,1
DA:1143,1
DA:1144,1
DA:1145,1
DA:1146,1
DA:1147,1
DA:1148,1
DA:1150,1
DA:1151,1
DA:1153,1
DA:1154,1
DA:1155,1
DA:1156,1
DA:1158,1
DA:1159,1
DA:1160,1
DA:1161,1
DA:1163,1
DA:1164,1
DA:1165,1
DA:1166,1
DA:1167,1
DA:1168,1
DA:1169,1
DA:1170,1
DA:1171,1
DA:1172,1
DA:1173,1
DA:1174,1
DA:1175,1
BRF:0
BRH:0
LF:780
LH:722
end_of_record
SF:C:\Users\randy\Git\qsoripper-adif-refresh\src\rust\qsoripper-server\src\setup.rs
FN:43,_RNvMNtCsujLUsjorcV_16qsoripper_server5setupNtB2_19SetupControlSurface3new
FN:224,_RNvMs0_NtCsujLUsjorcV_16qsoripper_server5setupNtB5_10SetupState10save_setup
FN:265,_RNvMs0_NtCsujLUsjorcV_16qsoripper_server5setupNtB5_10SetupState19get_station_profile
FN:280,_RNvMs0_NtCsujLUsjorcV_16qsoripper_server5setupNtB5_10SetupState20save_station_profile
FN:253,_RNvMs0_NtCsujLUsjorcV_16qsoripper_server5setupNtB5_10SetupState21list_station_profiles
FN:207,_RNvMs0_NtCsujLUsjorcV_16qsoripper_server5setupNtB5_10SetupState21runtime_config_values
FN:353,_RNvMs0_NtCsujLUsjorcV_16qsoripper_server5setupNtB5_10SetupState22active_station_context
FN:314,_RNvMs0_NtCsujLUsjorcV_16qsoripper_server5setupNtB5_10SetupState22delete_station_profile
FN:331,_RNvMs0_NtCsujLUsjorcV_16qsoripper_server5setupNtB5_10SetupState26set_active_station_profile
FN:384,_RNvMs0_NtCsujLUsjorcV_16qsoripper_server5setupNtB5_10SetupState36set_session_station_profile_override
FN:402,_RNvMs0_NtCsujLUsjorcV_16qsoripper_server5setupNtB5_10SetupState38clear_session_station_profile_override
FN:198,_RNvMs0_NtCsujLUsjorcV_16qsoripper_server5setupNtB5_10SetupState4load
FN:215,_RNvMs0_NtCsujLUsjorcV_16qsoripper_server5setupNtB5_10SetupState6status
FN:453,_RNvMs1_NtCsujLUsjorcV_16qsoripper_server5setupNtB5_20PersistedSetupConfig12from_request
FN:570,_RNvMs1_NtCsujLUsjorcV_16qsoripper_server5setupNtB5_20PersistedSetupConfig13log_file_path
FN:591,_RNvMs1_NtCsujLUsjorcV_16qsoripper_server5setupNtB5_20PersistedSetupConfig15station_profile
FN:539,_RNvMs1_NtCsujLUsjorcV_16qsoripper_server5setupNtB5_20PersistedSetupConfig17to_runtime_values
FN:624,_RNvMs1_NtCsujLUsjorcV_16qsoripper_server5setupNtB5_20PersistedSetupConfig20save_station_profile
FN:603,_RNvMs1_NtCsujLUsjorcV_16qsoripper_server5setupNtB5_20PersistedSetupConfig21station_profile_count
FN:640,_RNvMs1_NtCsujLUsjorcV_16qsoripper_server5setupNtB5_20PersistedSetupConfig22delete_station_profile
FN:583,_RNvMs1_NtCsujLUsjorcV_16qsoripper_server5setupNtB5_20PersistedSetupConfig22legacy_storage_backend
FN:575,_RNvMs1_NtCsujLUsjorcV_16qsoripper_server5setupNtB5_20PersistedSetupConfig23runtime_storage_backend
FN:599,_RNvMs1_NtCsujLUsjorcV_16qsoripper_server5setupNtB5_20PersistedSetupConfig25active_station_profile_id
FN:616,_RNvMs1_NtCsujLUsjorcV_16qsoripper_server5setupNtB5_20PersistedSetupConfig26get_station_profile_record
FN:647,_RNvMs1_NtCsujLUsjorcV_16qsoripper_server5setupNtB5_20PersistedSetupConfig26set_active_station_profile
FN:654,_RNvMs1_NtCsujLUsjorcV_16qsoripper_server5setupNtB5_20PersistedSetupConfig27sync_active_station_profile
FN:608,_RNvMs1_NtCsujLUsjorcV_16qsoripper_server5setupNtB5_20PersistedSetupConfig28list_station_profile_records
FN:668,_RNvMs2_NtCsujLUsjorcV_16qsoripper_server5setupNtB5_22PersistedLogbookConfig8is_empty
FN:680,_RNvMs3_NtCsujLUsjorcV_16qsoripper_server5setupNtB5_22PersistedStorageConfig8is_empty
FN:725,_RNvMs4_NtCsujLUsjorcV_16qsoripper_server5setupNtB5_30PersistedStationProfileCatalog10find_entry
FN:740,_RNvMs4_NtCsujLUsjorcV_16qsoripper_server5setupNtB5_30PersistedStationProfileCatalog12list_records
FN:754,_RNvMs4_NtCsujLUsjorcV_16qsoripper_server5setupNtB5_30PersistedStationProfileCatalog12save_profile
FN:718,_RNvMs4_NtCsujLUsjorcV_16qsoripper_server5setupNtB5_30PersistedStationProfileCatalog14active_profile
FN:792,_RNvMs4_NtCsujLUsjorcV_16qsoripper_server5setupNtB5_30PersistedStationProfileCatalog14delete_profile
FN:712,_RNvMs4_NtCsujLUsjorcV_16qsoripper_server5setupNtB5_30PersistedStationProfileCatalog17active_profile_id
FN:814,_RNvMs4_NtCsujLUsjorcV_16qsoripper_server5setupNtB5_30PersistedStationProfileCatalog18set_active_profile
FN:833,_RNvMs4_NtCsujLUsjorcV_16qsoripper_server5setupNtB5_30PersistedStationProfileCatalog21bootstrap_from_legacy
FN:732,_RNvMs4_NtCsujLUsjorcV_16qsoripper_server5setupNtB5_30PersistedStationProfileCatalog26count_with_legacy_fallback
FN:855,_RNvMs5_NtCsujLUsjorcV_16qsoripper_server5setupNtB5_28PersistedStationProfileEntry8to_proto
FN:859,_RNvMs5_NtCsujLUsjorcV_16qsoripper_server5setupNtB5_28PersistedStationProfileEntry9to_record
FN:869,_RNvMs6_NtCsujLUsjorcV_16qsoripper_server5setupNtB5_23PersistedStationProfile10from_proto
FN:907,_RNvMs6_NtCsujLUsjorcV_16qsoripper_server5setupNtB5_23PersistedStationProfile10has_values
FN:888,_RNvMs6_NtCsujLUsjorcV_16qsoripper_server5setupNtB5_23PersistedStationProfile8to_proto
FN:58,_RNvMs_NtCsujLUsjorcV_16qsoripper_server5setupNtB4_28StationProfileControlSurface3new
FN:999,_RNvNtCsujLUsjorcV_16qsoripper_server5setup12build_status
FN:1036,_RNvNtCsujLUsjorcV_16qsoripper_server5setup14build_warnings
FN:918,_RNvNtCsujLUsjorcV_16qsoripper_server5setup19default_config_path
FN:1107,_RNvNtCsujLUsjorcV_16qsoripper_server5setup19generate_profile_id
FN:1091,_RNvNtCsujLUsjorcV_16qsoripper_server5setup20normalize_profile_id
FN:954,_RNvNtCsujLUsjorcV_16qsoripper_server5setup21load_persisted_config
FN:975,_RNvNtCsujLUsjorcV_16qsoripper_server5setup22write_persisted_config
FN:947,_RNvNtCsujLUsjorcV_16qsoripper_server5setup23suggested_log_file_path
FN:1073,_RNvNtCsujLUsjorcV_16qsoripper_server5setup25normalize_optional_string
FN:1082,_RNvNtCsujLUsjorcV_16qsoripper_server5setup27normalize_optional_callsign
FN:80,_RNvXs9_NtCsujLUsjorcV_16qsoripper_server5setupNtB5_19SetupControlSurfaceNtNtNtNtNtCsgPbJLsevrBc_14qsoripper_core5proto9qsoripper8services20setup_service_server12SetupService10save_setup
FN:71,_RNvXs9_NtCsujLUsjorcV_16qsoripper_server5setupNtB5_19SetupControlSurfaceNtNtNtNtNtCsgPbJLsevrBc_14qsoripper_core5proto9qsoripper8services20setup_service_server12SetupService16get_setup_status
FN:104,_RNvXsa_NtCsujLUsjorcV_16qsoripper_server5setupNtB5_28StationProfileControlSurfaceNtNtNtNtNtCsgPbJLsevrBc_14qsoripper_core5proto9qsoripper8services30station_profile_service_server21StationProfileService19get_station_profile
FN:116,_RNvXsa_NtCsujLUsjorcV_16qsoripper_server5setupNtB5_28StationProfileControlSurfaceNtNtNtNtNtCsgPbJLsevrBc_14qsoripper_core5proto9qsoripper8services30station_profile_service_server21StationProfileService20save_station_profile
FN:97,_RNvXsa_NtCsujLUsjorcV_16qsoripper_server5setupNtB5_28StationProfileControlSurfaceNtNtNtNtNtCsgPbJLsevrBc_14qsoripper_core5proto9qsoripper8services30station_profile_service_server21StationProfileService21list_station_profiles
FN:128,_RNvXsa_NtCsujLUsjorcV_16qsoripper_server5setupNtB5_28StationProfileControlSurfaceNtNtNtNtNtCsgPbJLsevrBc_14qsoripper_core5proto9qsoripper8services30station_profile_service_server21StationProfileService22delete_station_profile
FN:152,_RNvXsa_NtCsujLUsjorcV_16qsoripper_server5setupNtB5_28StationProfileControlSurfaceNtNtNtNtNtCsgPbJLsevrBc_14qsoripper_core5proto9qsoripper8services30station_profile_service_server21StationProfileService26get_active_station_context
FN:140,_RNvXsa_NtCsujLUsjorcV_16qsoripper_server5setupNtB5_28StationProfileControlSurfaceNtNtNtNtNtCsgPbJLsevrBc_14qsoripper_core5proto9qsoripper8services30station_profile_service_server21StationProfileService26set_active_station_profile
FN:165,_RNvXsa_NtCsujLUsjorcV_16qsoripper_server5setupNtB5_28StationProfileControlSurfaceNtNtNtNtNtCsgPbJLsevrBc_14qsoripper_core5proto9qsoripper8services30station_profile_service_server21StationProfileService36set_session_station_profile_override
FN:179,_RNvXsa_NtCsujLUsjorcV_16qsoripper_server5setupNtB5_28StationProfileControlSurfaceNtNtNtNtNtCsgPbJLsevrBc_14qsoripper_core5proto9qsoripper8services30station_profile_service_server21StationProfileService38clear_session_station_profile_override
FN:1475,_RNCNCNCNvNtNtCsujLUsjorcV_16qsoripper_server5setup5testss_46save_setup_preserves_existing_station_profiles0s1_00Bb_
FN:1448,_RNCNCNvNtNtCsujLUsjorcV_16qsoripper_server5setup5testss_46save_setup_preserves_existing_station_profiles00B9_
FN:1469,_RNCNCNvNtNtCsujLUsjorcV_16qsoripper_server5setup5testss_46save_setup_preserves_existing_station_profiles0s0_0B9_
FN:1470,_RNCNCNvNtNtCsujLUsjorcV_16qsoripper_server5setup5testss_46save_setup_preserves_existing_station_profiles0s1_0B9_
FN:1455,_RNCNCNvNtNtCsujLUsjorcV_16qsoripper_server5setup5testss_46save_setup_preserves_existing_station_profiles0s_0B9_
FN:1288,_RNCNCNvNtNtCsujLUsjorcV_16qsoripper_server5setup5testss_56get_setup_status_flags_legacy_memory_setup_for_migration00B9_
FN:1356,_RNCNCNvNtNtCsujLUsjorcV_16qsoripper_server5setup5testss_57save_setup_persists_config_and_hot_applies_runtime_values00B9_
FN:1581,_RNCNCNvNtNtCsujLUsjorcV_16qsoripper_server5setup5testss_89station_profile_service_lists_legacy_profile_and_supports_activation_and_session_override00B9_
FN:1636,_RNCNCNvNtNtCsujLUsjorcV_16qsoripper_server5setup5testss_89station_profile_service_lists_legacy_profile_and_supports_activation_and_session_override0s0_0B9_
FN:1611,_RNCNCNvNtNtCsujLUsjorcV_16qsoripper_server5setup5testss_89station_profile_service_lists_legacy_profile_and_supports_activation_and_session_override0s_0B9_
FN:1187,_RNCNvNtNtCsujLUsjorcV_16qsoripper_server5setup5testss_39get_setup_status_reports_missing_config0B7_
FN:1492,_RNCNvNtNtCsujLUsjorcV_16qsoripper_server5setup5testss_42save_setup_rejects_partial_qrz_credentials0B7_
FN:1369,_RNCNvNtNtCsujLUsjorcV_16qsoripper_server5setup5testss_46save_setup_preserves_existing_station_profiles0B7_
FN:1654,_RNCNvNtNtCsujLUsjorcV_16qsoripper_server5setup5testss_47default_config_path_ends_with_standard_filename0B7_
FN:1254,_RNCNvNtNtCsujLUsjorcV_16qsoripper_server5setup5testss_56get_setup_status_flags_legacy_memory_setup_for_migration0B7_
FN:1294,_RNCNvNtNtCsujLUsjorcV_16qsoripper_server5setup5testss_57save_setup_persists_config_and_hot_applies_runtime_values0B7_
FN:1215,_RNCNvNtNtCsujLUsjorcV_16qsoripper_server5setup5testss_61get_setup_status_reads_legacy_sqlite_storage_as_log_file_path0B7_
FN:1522,_RNCNvNtNtCsujLUsjorcV_16qsoripper_server5setup5testss_89station_profile_service_lists_legacy_profile_and_supports_activation_and_session_override0B7_
FN:412,_RINvMs0_NtCsujLUsjorcV_16qsoripper_server5setupNtB6_10SetupState23mutate_persisted_configNtNtCs2ocB3yIIgEv_5alloc6string6StringNCNCNvB2_20save_station_profile0s_0EB8_
FN:412,_RINvMs0_NtCsujLUsjorcV_16qsoripper_server5setupNtB6_10SetupState23mutate_persisted_configuNCNCNvB2_22delete_station_profile00EB8_
FN:412,_RINvMs0_NtCsujLUsjorcV_16qsoripper_server5setupNtB6_10SetupState23mutate_persisted_configuNCNCNvB2_26set_active_station_profile00EB8_
FN:416,_RNCINvMs0_NtCsujLUsjorcV_16qsoripper_server5setupNtB8_10SetupState23mutate_persisted_configNtNtCs2ocB3yIIgEv_5alloc6string6StringNCNCNvB4_20save_station_profile0s_0E0Ba_
FN:416,_RNCINvMs0_NtCsujLUsjorcV_16qsoripper_server5setupNtB8_10SetupState23mutate_persisted_configuNCNCNvB4_22delete_station_profile00E0Ba_
FN:416,_RNCINvMs0_NtCsujLUsjorcV_16qsoripper_server5setupNtB8_10SetupState23mutate_persisted_configuNCNCNvB4_26set_active_station_profile00E0Ba_
FN:417,_RNCNCINvMs0_NtCsujLUsjorcV_16qsoripper_server5setupNtBa_10SetupState23mutate_persisted_configNtNtCs2ocB3yIIgEv_5alloc6string6StringNCNCNvB6_20save_station_profile0s_0E00Bc_
FN:417,_RNCNCINvMs0_NtCsujLUsjorcV_16qsoripper_server5setupNtBa_10SetupState23mutate_persisted_configuNCNCNvB6_22delete_station_profile00E00Bc_
FN:417,_RNCNCINvMs0_NtCsujLUsjorcV_16qsoripper_server5setupNtBa_10SetupState23mutate_persisted_configuNCNCNvB6_26set_active_station_profile00E00Bc_
FN:273,_RNCNCNvMs0_NtCsujLUsjorcV_16qsoripper_server5setupNtB9_10SetupState19get_station_profile00Bb_
FN:274,_RNCNCNvMs0_NtCsujLUsjorcV_16qsoripper_server5setupNtB9_10SetupState19get_station_profile0s_0Bb_
FN:288,_RNCNCNvMs0_NtCsujLUsjorcV_16qsoripper_server5setupNtB9_10SetupState20save_station_profile00Bb_
FN:304,_RNCNCNvMs0_NtCsujLUsjorcV_16qsoripper_server5setupNtB9_10SetupState20save_station_profile0s0_0Bb_
FN:305,_RNCNCNvMs0_NtCsujLUsjorcV_16qsoripper_server5setupNtB9_10SetupState20save_station_profile0s1_0Bb_
FN:293,_RNCNCNvMs0_NtCsujLUsjorcV_16qsoripper_server5setupNtB9_10SetupState20save_station_profile0s_0Bb_
FN:319,_RNCNCNvMs0_NtCsujLUsjorcV_16qsoripper_server5setupNtB9_10SetupState22delete_station_profile00Bb_
FN:337,_RNCNCNvMs0_NtCsujLUsjorcV_16qsoripper_server5setupNtB9_10SetupState26set_active_station_profile00Bb_
FN:345,_RNCNCNvMs0_NtCsujLUsjorcV_16qsoripper_server5setupNtB9_10SetupState26set_active_station_profile0s0_0Bb_
FN:344,_RNCNCNvMs0_NtCsujLUsjorcV_16qsoripper_server5setupNtB9_10SetupState26set_active_station_profile0s_0Bb_
FN:390,_RNCNCNvMs0_NtCsujLUsjorcV_16qsoripper_server5setupNtB9_10SetupState36set_session_station_profile_override00Bb_
FN:1123,_RNCNCNvNtCsujLUsjorcV_16qsoripper_server5setup19generate_profile_ids0_00B7_
FN:1120,_RNCNCNvNtCsujLUsjorcV_16qsoripper_server5setup19generate_profile_ids_00B7_
FN:228,_RNCNvMs0_NtCsujLUsjorcV_16qsoripper_server5setupNtB7_10SetupState10save_setup0B9_
FN:268,_RNCNvMs0_NtCsujLUsjorcV_16qsoripper_server5setupNtB7_10SetupState19get_station_profile0B9_
FN:284,_RNCNvMs0_NtCsujLUsjorcV_16qsoripper_server5setupNtB7_10SetupState20save_station_profile0B9_
FN:253,_RNCNvMs0_NtCsujLUsjorcV_16qsoripper_server5setupNtB7_10SetupState21list_station_profiles0B9_
FN:207,_RNCNvMs0_NtCsujLUsjorcV_16qsoripper_server5setupNtB7_10SetupState21runtime_config_values0B9_
FN:356,_RNCNvMs0_NtCsujLUsjorcV_16qsoripper_server5setupNtB7_10SetupState22active_station_context0B9_
FN:318,_RNCNvMs0_NtCsujLUsjorcV_16qsoripper_server5setupNtB7_10SetupState22delete_station_profile0B9_
FN:335,_RNCNvMs0_NtCsujLUsjorcV_16qsoripper_server5setupNtB7_10SetupState26set_active_station_profile0B9_
FN:388,_RNCNvMs0_NtCsujLUsjorcV_16qsoripper_server5setupNtB7_10SetupState36set_session_station_profile_override0B9_
FN:405,_RNCNvMs0_NtCsujLUsjorcV_16qsoripper_server5setupNtB7_10SetupState38clear_session_station_profile_override0B9_
FN:215,_RNCNvMs0_NtCsujLUsjorcV_16qsoripper_server5setupNtB7_10SetupState6status0B9_
FN:462,_RNCNvMs1_NtCsujLUsjorcV_16qsoripper_server5setupNtB7_20PersistedSetupConfig12from_request0B9_
FN:512,_RNCNvMs1_NtCsujLUsjorcV_16qsoripper_server5setupNtB7_20PersistedSetupConfig12from_requests0_0B9_
FN:515,_RNCNvMs1_NtCsujLUsjorcV_16qsoripper_server5setupNtB7_20PersistedSetupConfig12from_requests1_0B9_
FN:502,_RNCNvMs1_NtCsujLUsjorcV_16qsoripper_server5setupNtB7_20PersistedSetupConfig12from_requests_0B9_
FN:572,_RNCNvMs1_NtCsujLUsjorcV_16qsoripper_server5setupNtB7_20PersistedSetupConfig13log_file_path0B9_
FN:593,_RNCNvMs1_NtCsujLUsjorcV_16qsoripper_server5setupNtB7_20PersistedSetupConfig15station_profile0B9_
FN:620,_RNCNvMs1_NtCsujLUsjorcV_16qsoripper_server5setupNtB7_20PersistedSetupConfig26get_station_profile_record0B9_
FN:621,_RNCNvMs1_NtCsujLUsjorcV_16qsoripper_server5setupNtB7_20PersistedSetupConfig26get_station_profile_records_0B9_
FN:656,_RNCNvMs1_NtCsujLUsjorcV_16qsoripper_server5setupNtB7_20PersistedSetupConfig27sync_active_station_profile0B9_
FN:657,_RNCNvMs1_NtCsujLUsjorcV_16qsoripper_server5setupNtB7_20PersistedSetupConfig27sync_active_station_profiles_0B9_
FN:612,_RNCNvMs1_NtCsujLUsjorcV_16qsoripper_server5setupNtB7_20PersistedSetupConfig28list_station_profile_records0B9_
FN:729,_RNCNvMs4_NtCsujLUsjorcV_16qsoripper_server5setupNtB7_30PersistedStationProfileCatalog10find_entry0B9_
FN:765,_RNCNvMs4_NtCsujLUsjorcV_16qsoripper_server5setupNtB7_30PersistedStationProfileCatalog12save_profile0B9_
FN:770,_RNCNvMs4_NtCsujLUsjorcV_16qsoripper_server5setupNtB7_30PersistedStationProfileCatalog12save_profiles0_0B9_
FN:775,_RNCNvMs4_NtCsujLUsjorcV_16qsoripper_server5setupNtB7_30PersistedStationProfileCatalog12save_profiles1_0B9_
FN:769,_RNCNvMs4_NtCsujLUsjorcV_16qsoripper_server5setupNtB7_30PersistedStationProfileCatalog12save_profiles_0B9_
FN:721,_RNCNvMs4_NtCsujLUsjorcV_16qsoripper_server5setupNtB7_30PersistedStationProfileCatalog14active_profile0B9_
FN:722,_RNCNvMs4_NtCsujLUsjorcV_16qsoripper_server5setupNtB7_30PersistedStationProfileCatalog14active_profiles_0B9_
FN:807,_RNCNvMs4_NtCsujLUsjorcV_16qsoripper_server5setupNtB7_30PersistedStationProfileCatalog14delete_profile0B9_
FN:714,_RNCNvMs4_NtCsujLUsjorcV_16qsoripper_server5setupNtB7_30PersistedStationProfileCatalog17active_profile_id0B9_
FN:715,_RNCNvMs4_NtCsujLUsjorcV_16qsoripper_server5setupNtB7_30PersistedStationProfileCatalog17active_profile_ids_0B9_
FN:824,_RNCNvMs4_NtCsujLUsjorcV_16qsoripper_server5setupNtB7_30PersistedStationProfileCatalog18set_active_profile0B9_
FN:842,_RNCNvMs4_NtCsujLUsjorcV_16qsoripper_server5setupNtB7_30PersistedStationProfileCatalog21bootstrap_from_legacy0B9_
FN:1020,_RNCNvNtCsujLUsjorcV_16qsoripper_server5setup12build_status0B5_
FN:1028,_RNCNvNtCsujLUsjorcV_16qsoripper_server5setup12build_statuss0_0B5_
FN:1022,_RNCNvNtCsujLUsjorcV_16qsoripper_server5setup12build_statuss_0B5_
FN:923,_RNCNvNtCsujLUsjorcV_16qsoripper_server5setup19default_config_path0B5_
FN:1114,_RNCNvNtCsujLUsjorcV_16qsoripper_server5setup19generate_profile_id0B5_
FN:1122,_RNCNvNtCsujLUsjorcV_16qsoripper_server5setup19generate_profile_ids0_0B5_
FN:1125,_RNCNvNtCsujLUsjorcV_16qsoripper_server5setup19generate_profile_ids1_0B5_
FN:1127,_RNCNvNtCsujLUsjorcV_16qsoripper_server5setup19generate_profile_ids2_0B5_
FN:1133,_RNCNvNtCsujLUsjorcV_16qsoripper_server5setup19generate_profile_ids3_0B5_
FN:1115,_RNCNvNtCsujLUsjorcV_16qsoripper_server5setup19generate_profile_ids_0B5_
FN:960,_RNCNvNtCsujLUsjorcV_16qsoripper_server5setup21load_persisted_config0B5_
FN:961,_RNCNvNtCsujLUsjorcV_16qsoripper_server5setup21load_persisted_configs_0B5_
FN:977,_RNCNvNtCsujLUsjorcV_16qsoripper_server5setup22write_persisted_config0B5_
FN:991,_RNCNvNtCsujLUsjorcV_16qsoripper_server5setup22write_persisted_configs0_0B5_
FN:985,_RNCNvNtCsujLUsjorcV_16qsoripper_server5setup22write_persisted_configs_0B5_
FN:950,_RNCNvNtCsujLUsjorcV_16qsoripper_server5setup23suggested_log_file_path0B5_
FN:1164,_RNvNtNtCsujLUsjorcV_16qsoripper_server5setup5tests18unique_config_path
FN:1177,_RNvNtNtCsujLUsjorcV_16qsoripper_server5setup5tests22absolute_log_file_path
FN:1187,_RNvNtNtCsujLUsjorcV_16qsoripper_server5setup5testss_39get_setup_status_reports_missing_config
FN:1492,_RNvNtNtCsujLUsjorcV_16qsoripper_server5setup5testss_42save_setup_rejects_partial_qrz_credentials
FN:1369,_RNvNtNtCsujLUsjorcV_16qsoripper_server5setup5testss_46save_setup_preserves_existing_station_profiles
FN:1649,_RNvNtNtCsujLUsjorcV_16qsoripper_server5setup5testss_47default_config_path_ends_with_standard_filename
FN:1254,_RNvNtNtCsujLUsjorcV_16qsoripper_server5setup5testss_56get_setup_status_flags_legacy_memory_setup_for_migration
FN:1294,_RNvNtNtCsujLUsjorcV_16qsoripper_server5setup5testss_57save_setup_persists_config_and_hot_applies_runtime_values
FN:1215,_RNvNtNtCsujLUsjorcV_16qsoripper_server5setup5testss_61get_setup_status_reads_legacy_sqlite_storage_as_log_file_path
FN:1521,_RNvNtNtCsujLUsjorcV_16qsoripper_server5setup5testss_89station_profile_service_lists_legacy_profile_and_supports_activation_and_session_override
FNDA:8,_RNvMNtCsujLUsjorcV_16qsoripper_server5setupNtB2_19SetupControlSurface3new
FNDA:5,_RNvMs0_NtCsujLUsjorcV_16qsoripper_server5setupNtB5_10SetupState10save_setup
FNDA:0,_RNvMs0_NtCsujLUsjorcV_16qsoripper_server5setupNtB5_10SetupState19get_station_profile
FNDA:2,_RNvMs0_NtCsujLUsjorcV_16qsoripper_server5setupNtB5_10SetupState20save_station_profile
FNDA:2,_RNvMs0_NtCsujLUsjorcV_16qsoripper_server5setupNtB5_10SetupState21list_station_profiles
FNDA:1,_RNvMs0_NtCsujLUsjorcV_16qsoripper_server5setupNtB5_10SetupState21runtime_config_values
FNDA:2,_RNvMs0_NtCsujLUsjorcV_16qsoripper_server5setupNtB5_10SetupState22active_station_context
FNDA:0,_RNvMs0_NtCsujLUsjorcV_16qsoripper_server5setupNtB5_10SetupState22delete_station_profile
FNDA:1,_RNvMs0_NtCsujLUsjorcV_16qsoripper_server5setupNtB5_10SetupState26set_active_station_profile
FNDA:1,_RNvMs0_NtCsujLUsjorcV_16qsoripper_server5setupNtB5_10SetupState36set_session_station_profile_override
FNDA:0,_RNvMs0_NtCsujLUsjorcV_16qsoripper_server5setupNtB5_10SetupState38clear_session_station_profile_override
FNDA:8,_RNvMs0_NtCsujLUsjorcV_16qsoripper_server5setupNtB5_10SetupState4load
FNDA:8,_RNvMs0_NtCsujLUsjorcV_16qsoripper_server5setupNtB5_10SetupState6status
FNDA:5,_RNvMs1_NtCsujLUsjorcV_16qsoripper_server5setupNtB5_20PersistedSetupConfig12from_request
FNDA:32,_RNvMs1_NtCsujLUsjorcV_16qsoripper_server5setupNtB5_20PersistedSetupConfig13log_file_path
FNDA:21,_RNvMs1_NtCsujLUsjorcV_16qsoripper_server5setupNtB5_20PersistedSetupConfig15station_profile
FNDA:7,_RNvMs1_NtCsujLUsjorcV_16qsoripper_server5setupNtB5_20PersistedSetupConfig17to_runtime_values
FNDA:2,_RNvMs1_NtCsujLUsjorcV_16qsoripper_server5setupNtB5_20PersistedSetupConfig20save_station_profile
FNDA:12,_RNvMs1_NtCsujLUsjorcV_16qsoripper_server5setupNtB5_20PersistedSetupConfig21station_profile_count
FNDA:0,_RNvMs1_NtCsujLUsjorcV_16qsoripper_server5setupNtB5_20PersistedSetupConfig22delete_station_profile
FNDA:2,_RNvMs1_NtCsujLUsjorcV_16qsoripper_server5setupNtB5_20PersistedSetupConfig22legacy_storage_backend
FNDA:13,_RNvMs1_NtCsujLUsjorcV_16qsoripper_server5setupNtB5_20PersistedSetupConfig23runtime_storage_backend
FNDA:26,_RNvMs1_NtCsujLUsjorcV_16qsoripper_server5setupNtB5_20PersistedSetupConfig25active_station_profile_id
FNDA:3,_RNvMs1_NtCsujLUsjorcV_16qsoripper_server5setupNtB5_20PersistedSetupConfig26get_station_profile_record
FNDA:1,_RNvMs1_NtCsujLUsjorcV_16qsoripper_server5setupNtB5_20PersistedSetupConfig26set_active_station_profile
FNDA:9,_RNvMs1_NtCsujLUsjorcV_16qsoripper_server5setupNtB5_20PersistedSetupConfig27sync_active_station_profile
FNDA:2,_RNvMs1_NtCsujLUsjorcV_16qsoripper_server5setupNtB5_20PersistedSetupConfig28list_station_profile_records
FNDA:14,_RNvMs2_NtCsujLUsjorcV_16qsoripper_server5setupNtB5_22PersistedLogbookConfig8is_empty
FNDA:14,_RNvMs3_NtCsujLUsjorcV_16qsoripper_server5setupNtB5_22PersistedStorageConfig8is_empty
FNDA:56,_RNvMs4_NtCsujLUsjorcV_16qsoripper_server5setupNtB5_30PersistedStationProfileCatalog10find_entry
FNDA:5,_RNvMs4_NtCsujLUsjorcV_16qsoripper_server5setupNtB5_30PersistedStationProfileCatalog12list_records
FNDA:6,_RNvMs4_NtCsujLUsjorcV_16qsoripper_server5setupNtB5_30PersistedStationProfileCatalog12save_profile
FNDA:56,_RNvMs4_NtCsujLUsjorcV_16qsoripper_server5setupNtB5_30PersistedStationProfileCatalog14active_profile
FNDA:0,_RNvMs4_NtCsujLUsjorcV_16qsoripper_server5setupNtB5_30PersistedStationProfileCatalog14delete_profile
FNDA:26,_RNvMs4_NtCsujLUsjorcV_16qsoripper_server5setupNtB5_30PersistedStationProfileCatalog17active_profile_id
FNDA:1,_RNvMs4_NtCsujLUsjorcV_16qsoripper_server5setupNtB5_30PersistedStationProfileCatalog18set_active_profile
FNDA:9,_RNvMs4_NtCsujLUsjorcV_16qsoripper_server5setupNtB5_30PersistedStationProfileCatalog21bootstrap_from_legacy
FNDA:12,_RNvMs4_NtCsujLUsjorcV_16qsoripper_server5setupNtB5_30PersistedStationProfileCatalog26count_with_legacy_fallback
FNDA:37,_RNvMs5_NtCsujLUsjorcV_16qsoripper_server5setupNtB5_28PersistedStationProfileEntry8to_proto
FNDA:7,_RNvMs5_NtCsujLUsjorcV_16qsoripper_server5setupNtB5_28PersistedStationProfileEntry9to_record
FNDA:19,_RNvMs6_NtCsujLUsjorcV_16qsoripper_server5setupNtB5_23PersistedStationProfile10from_proto
FNDA:5,_RNvMs6_NtCsujLUsjorcV_16qsoripper_server5setupNtB5_23PersistedStationProfile10has_values
FNDA:44,_RNvMs6_NtCsujLUsjorcV_16qsoripper_server5setupNtB5_23PersistedStationProfile8to_proto
FNDA:3,_RNvMs_NtCsujLUsjorcV_16qsoripper_server5setupNtB4_28StationProfileControlSurface3new
FNDA:8,_RNvNtCsujLUsjorcV_16qsoripper_server5setup12build_status
FNDA:8,_RNvNtCsujLUsjorcV_16qsoripper_server5setup14build_warnings
FNDA:6,_RNvNtCsujLUsjorcV_16qsoripper_server5setup19default_config_path
FNDA:7,_RNvNtCsujLUsjorcV_16qsoripper_server5setup19generate_profile_id
FNDA:72,_RNvNtCsujLUsjorcV_16qsoripper_server5setup20normalize_profile_id
FNDA:8,_RNvNtCsujLUsjorcV_16qsoripper_server5setup21load_persisted_config
FNDA:7,_RNvNtCsujLUsjorcV_16qsoripper_server5setup22write_persisted_config
FNDA:9,_RNvNtCsujLUsjorcV_16qsoripper_server5setup23suggested_log_file_path
FNDA:273,_RNvNtCsujLUsjorcV_16qsoripper_server5setup25normalize_optional_string
FNDA:54,_RNvNtCsujLUsjorcV_16qsoripper_server5setup27normalize_optional_callsign
FNDA:5,_RNvXs9_NtCsujLUsjorcV_16qsoripper_server5setupNtB5_19SetupControlSurfaceNtNtNtNtNtCsgPbJLsevrBc_14qsoripper_core5proto9qsoripper8services20setup_service_server12SetupService10save_setup
FNDA:3,_RNvXs9_NtCsujLUsjorcV_16qsoripper_server5setupNtB5_19SetupControlSurfaceNtNtNtNtNtCsgPbJLsevrBc_14qsoripper_core5proto9qsoripper8services20setup_service_server12SetupService16get_setup_status
FNDA:0,_RNvXsa_NtCsujLUsjorcV_16qsoripper_server5setupNtB5_28StationProfileControlSurfaceNtNtNtNtNtCsgPbJLsevrBc_14qsoripper_core5proto9qsoripper8services30station_profile_service_server21StationProfileService19get_station_profile
FNDA:2,_RNvXsa_NtCsujLUsjorcV_16qsoripper_server5setupNtB5_28StationProfileControlSurfaceNtNtNtNtNtCsgPbJLsevrBc_14qsoripper_core5proto9qsoripper8services30station_profile_service_server21StationProfileService20save_station_profile
FNDA:2,_RNvXsa_NtCsujLUsjorcV_16qsoripper_server5setupNtB5_28StationProfileControlSurfaceNtNtNtNtNtCsgPbJLsevrBc_14qsoripper_core5proto9qsoripper8services30station_profile_service_server21StationProfileService21list_station_profiles
FNDA:0,_RNvXsa_NtCsujLUsjorcV_16qsoripper_server5setupNtB5_28StationProfileControlSurfaceNtNtNtNtNtCsgPbJLsevrBc_14qsoripper_core5proto9qsoripper8services30station_profile_service_server21StationProfileService22delete_station_profile
FNDA:1,_RNvXsa_NtCsujLUsjorcV_16qsoripper_server5setupNtB5_28StationProfileControlSurfaceNtNtNtNtNtCsgPbJLsevrBc_14qsoripper_core5proto9qsoripper8services30station_profile_service_server21StationProfileService26get_active_station_context
FNDA:1,_RNvXsa_NtCsujLUsjorcV_16qsoripper_server5setupNtB5_28StationProfileControlSurfaceNtNtNtNtNtCsgPbJLsevrBc_14qsoripper_core5proto9qsoripper8services30station_profile_service_server21StationProfileService26set_active_station_profile
FNDA:1,_RNvXsa_NtCsujLUsjorcV_16qsoripper_server5setupNtB5_28StationProfileControlSurfaceNtNtNtNtNtCsgPbJLsevrBc_14qsoripper_core5proto9qsoripper8services30station_profile_service_server21StationProfileService36set_session_station_profile_override
FNDA:0,_RNvXsa_NtCsujLUsjorcV_16qsoripper_server5setupNtB5_28StationProfileControlSurfaceNtNtNtNtNtCsgPbJLsevrBc_14qsoripper_core5proto9qsoripper8services30station_profile_service_server21StationProfileService38clear_session_station_profile_override
FNDA:1,_RNCNCNCNvNtNtCsujLUsjorcV_16qsoripper_server5setup5testss_46save_setup_preserves_existing_station_profiles0s1_00Bb_
FNDA:1,_RNCNCNvNtNtCsujLUsjorcV_16qsoripper_server5setup5testss_46save_setup_preserves_existing_station_profiles00B9_
FNDA:2,_RNCNCNvNtNtCsujLUsjorcV_16qsoripper_server5setup5testss_46save_setup_preserves_existing_station_profiles0s0_0B9_
FNDA:1,_RNCNCNvNtNtCsujLUsjorcV_16qsoripper_server5setup5testss_46save_setup_preserves_existing_station_profiles0s1_0B9_
FNDA:1,_RNCNCNvNtNtCsujLUsjorcV_16qsoripper_server5setup5testss_46save_setup_preserves_existing_station_profiles0s_0B9_
FNDA:1,_RNCNCNvNtNtCsujLUsjorcV_16qsoripper_server5setup5testss_56get_setup_status_flags_legacy_memory_setup_for_migration00B9_
FNDA:1,_RNCNCNvNtNtCsujLUsjorcV_16qsoripper_server5setup5testss_57save_setup_persists_config_and_hot_applies_runtime_values00B9_
FNDA:2,_RNCNCNvNtNtCsujLUsjorcV_16qsoripper_server5setup5testss_89station_profile_service_lists_legacy_profile_and_supports_activation_and_session_override00B9_
FNDA:1,_RNCNCNvNtNtCsujLUsjorcV_16qsoripper_server5setup5testss_89station_profile_service_lists_legacy_profile_and_supports_activation_and_session_override0s0_0B9_
FNDA:1,_RNCNCNvNtNtCsujLUsjorcV_16qsoripper_server5setup5testss_89station_profile_service_lists_legacy_profile_and_supports_activation_and_session_override0s_0B9_
FNDA:1,_RNCNvNtNtCsujLUsjorcV_16qsoripper_server5setup5testss_39get_setup_status_reports_missing_config0B7_
FNDA:1,_RNCNvNtNtCsujLUsjorcV_16qsoripper_server5setup5testss_42save_setup_rejects_partial_qrz_credentials0B7_
FNDA:1,_RNCNvNtNtCsujLUsjorcV_16qsoripper_server5setup5testss_46save_setup_preserves_existing_station_profiles0B7_
FNDA:1,_RNCNvNtNtCsujLUsjorcV_16qsoripper_server5setup5testss_47default_config_path_ends_with_standard_filename0B7_
FNDA:1,_RNCNvNtNtCsujLUsjorcV_16qsoripper_server5setup5testss_56get_setup_status_flags_legacy_memory_setup_for_migration0B7_
FNDA:1,_RNCNvNtNtCsujLUsjorcV_16qsoripper_server5setup5testss_57save_setup_persists_config_and_hot_applies_runtime_values0B7_
FNDA:1,_RNCNvNtNtCsujLUsjorcV_16qsoripper_server5setup5testss_61get_setup_status_reads_legacy_sqlite_storage_as_log_file_path0B7_
FNDA:1,_RNCNvNtNtCsujLUsjorcV_16qsoripper_server5setup5testss_89station_profile_service_lists_legacy_profile_and_supports_activation_and_session_override0B7_
FNDA:2,_RINvMs0_NtCsujLUsjorcV_16qsoripper_server5setupNtB6_10SetupState23mutate_persisted_configNtNtCs2ocB3yIIgEv_5alloc6string6StringNCNCNvB2_20save_station_profile0s_0EB8_
FNDA:0,_RINvMs0_NtCsujLUsjorcV_16qsoripper_server5setupNtB6_10SetupState23mutate_persisted_configuNCNCNvB2_22delete_station_profile00EB8_
FNDA:1,_RINvMs0_NtCsujLUsjorcV_16qsoripper_server5setupNtB6_10SetupState23mutate_persisted_configuNCNCNvB2_26set_active_station_profile00EB8_
FNDA:2,_RNCINvMs0_NtCsujLUsjorcV_16qsoripper_server5setupNtB8_10SetupState23mutate_persisted_configNtNtCs2ocB3yIIgEv_5alloc6string6StringNCNCNvB4_20save_station_profile0s_0E0Ba_
FNDA:0,_RNCINvMs0_NtCsujLUsjorcV_16qsoripper_server5setupNtB8_10SetupState23mutate_persisted_configuNCNCNvB4_22delete_station_profile00E0Ba_
FNDA:1,_RNCINvMs0_NtCsujLUsjorcV_16qsoripper_server5setupNtB8_10SetupState23mutate_persisted_configuNCNCNvB4_26set_active_station_profile00E0Ba_
FNDA:0,_RNCNCINvMs0_NtCsujLUsjorcV_16qsoripper_server5setupNtBa_10SetupState23mutate_persisted_configNtNtCs2ocB3yIIgEv_5alloc6string6StringNCNCNvB6_20save_station_profile0s_0E00Bc_
FNDA:0,_RNCNCINvMs0_NtCsujLUsjorcV_16qsoripper_server5setupNtBa_10SetupState23mutate_persisted_configuNCNCNvB6_22delete_station_profile00E00Bc_
FNDA:0,_RNCNCINvMs0_NtCsujLUsjorcV_16qsoripper_server5setupNtBa_10SetupState23mutate_persisted_configuNCNCNvB6_26set_active_station_profile00E00Bc_
FNDA:0,_RNCNCNvMs0_NtCsujLUsjorcV_16qsoripper_server5setupNtB9_10SetupState19get_station_profile00Bb_
FNDA:0,_RNCNCNvMs0_NtCsujLUsjorcV_16qsoripper_server5setupNtB9_10SetupState19get_station_profile0s_0Bb_
FNDA:0,_RNCNCNvMs0_NtCsujLUsjorcV_16qsoripper_server5setupNtB9_10SetupState20save_station_profile00Bb_
FNDA:2,_RNCNCNvMs0_NtCsujLUsjorcV_16qsoripper_server5setupNtB9_10SetupState20save_station_profile0s0_0Bb_
FNDA:0,_RNCNCNvMs0_NtCsujLUsjorcV_16qsoripper_server5setupNtB9_10SetupState20save_station_profile0s1_0Bb_
FNDA:2,_RNCNCNvMs0_NtCsujLUsjorcV_16qsoripper_server5setupNtB9_10SetupState20save_station_profile0s_0Bb_
FNDA:0,_RNCNCNvMs0_NtCsujLUsjorcV_16qsoripper_server5setupNtB9_10SetupState22delete_station_profile00Bb_
FNDA:1,_RNCNCNvMs0_NtCsujLUsjorcV_16qsoripper_server5setupNtB9_10SetupState26set_active_station_profile00Bb_
FNDA:0,_RNCNCNvMs0_NtCsujLUsjorcV_16qsoripper_server5setupNtB9_10SetupState26set_active_station_profile0s0_0Bb_
FNDA:1,_RNCNCNvMs0_NtCsujLUsjorcV_16qsoripper_server5setupNtB9_10SetupState26set_active_station_profile0s_0Bb_
FNDA:0,_RNCNCNvMs0_NtCsujLUsjorcV_16qsoripper_server5setupNtB9_10SetupState36set_session_station_profile_override00Bb_
FNDA:2,_RNCNCNvNtCsujLUsjorcV_16qsoripper_server5setup19generate_profile_ids0_00B7_
FNDA:5,_RNCNCNvNtCsujLUsjorcV_16qsoripper_server5setup19generate_profile_ids_00B7_
FNDA:5,_RNCNvMs0_NtCsujLUsjorcV_16qsoripper_server5setupNtB7_10SetupState10save_setup0B9_
FNDA:0,_RNCNvMs0_NtCsujLUsjorcV_16qsoripper_server5setupNtB7_10SetupState19get_station_profile0B9_
FNDA:2,_RNCNvMs0_NtCsujLUsjorcV_16qsoripper_server5setupNtB7_10SetupState20save_station_profile0B9_
FNDA:2,_RNCNvMs0_NtCsujLUsjorcV_16qsoripper_server5setupNtB7_10SetupState21list_station_profiles0B9_
FNDA:1,_RNCNvMs0_NtCsujLUsjorcV_16qsoripper_server5setupNtB7_10SetupState21runtime_config_values0B9_
FNDA:2,_RNCNvMs0_NtCsujLUsjorcV_16qsoripper_server5setupNtB7_10SetupState22active_station_context0B9_
FNDA:0,_RNCNvMs0_NtCsujLUsjorcV_16qsoripper_server5setupNtB7_10SetupState22delete_station_profile0B9_
FNDA:1,_RNCNvMs0_NtCsujLUsjorcV_16qsoripper_server5setupNtB7_10SetupState26set_active_station_profile0B9_
FNDA:1,_RNCNvMs0_NtCsujLUsjorcV_16qsoripper_server5setupNtB7_10SetupState36set_session_station_profile_override0B9_
FNDA:0,_RNCNvMs0_NtCsujLUsjorcV_16qsoripper_server5setupNtB7_10SetupState38clear_session_station_profile_override0B9_
FNDA:8,_RNCNvMs0_NtCsujLUsjorcV_16qsoripper_server5setupNtB7_10SetupState6status0B9_
FNDA:0,_RNCNvMs1_NtCsujLUsjorcV_16qsoripper_server5setupNtB7_20PersistedSetupConfig12from_request0B9_
FNDA:1,_RNCNvMs1_NtCsujLUsjorcV_16qsoripper_server5setupNtB7_20PersistedSetupConfig12from_requests0_0B9_
FNDA:1,_RNCNvMs1_NtCsujLUsjorcV_16qsoripper_server5setupNtB7_20PersistedSetupConfig12from_requests1_0B9_
FNDA:0,_RNCNvMs1_NtCsujLUsjorcV_16qsoripper_server5setupNtB7_20PersistedSetupConfig12from_requests_0B9_
FNDA:6,_RNCNvMs1_NtCsujLUsjorcV_16qsoripper_server5setupNtB7_20PersistedSetupConfig13log_file_path0B9_
FNDA:0,_RNCNvMs1_NtCsujLUsjorcV_16qsoripper_server5setupNtB7_20PersistedSetupConfig15station_profile0B9_
FNDA:6,_RNCNvMs1_NtCsujLUsjorcV_16qsoripper_server5setupNtB7_20PersistedSetupConfig26get_station_profile_record0B9_
FNDA:3,_RNCNvMs1_NtCsujLUsjorcV_16qsoripper_server5setupNtB7_20PersistedSetupConfig26get_station_profile_records_0B9_
FNDA:0,_RNCNvMs1_NtCsujLUsjorcV_16qsoripper_server5setupNtB7_20PersistedSetupConfig27sync_active_station_profile0B9_
FNDA:9,_RNCNvMs1_NtCsujLUsjorcV_16qsoripper_server5setupNtB7_20PersistedSetupConfig27sync_active_station_profiles_0B9_
FNDA:4,_RNCNvMs1_NtCsujLUsjorcV_16qsoripper_server5setupNtB7_20PersistedSetupConfig28list_station_profile_records0B9_
FNDA:63,_RNCNvMs4_NtCsujLUsjorcV_16qsoripper_server5setupNtB7_30PersistedStationProfileCatalog10find_entry0B9_
FNDA:4,_RNCNvMs4_NtCsujLUsjorcV_16qsoripper_server5setupNtB7_30PersistedStationProfileCatalog12save_profile0B9_
FNDA:5,_RNCNvMs4_NtCsujLUsjorcV_16qsoripper_server5setupNtB7_30PersistedStationProfileCatalog12save_profiles0_0B9_
FNDA:3,_RNCNvMs4_NtCsujLUsjorcV_16qsoripper_server5setupNtB7_30PersistedStationProfileCatalog12save_profiles1_0B9_
FNDA:1,_RNCNvMs4_NtCsujLUsjorcV_16qsoripper_server5setupNtB7_30PersistedStationProfileCatalog12save_profiles_0B9_
FNDA:56,_RNCNvMs4_NtCsujLUsjorcV_16qsoripper_server5setupNtB7_30PersistedStationProfileCatalog14active_profile0B9_
FNDA:0,_RNCNvMs4_NtCsujLUsjorcV_16qsoripper_server5setupNtB7_30PersistedStationProfileCatalog14active_profiles_0B9_
FNDA:0,_RNCNvMs4_NtCsujLUsjorcV_16qsoripper_server5setupNtB7_30PersistedStationProfileCatalog14delete_profile0B9_
FNDA:26,_RNCNvMs4_NtCsujLUsjorcV_16qsoripper_server5setupNtB7_30PersistedStationProfileCatalog17active_profile_id0B9_
FNDA:0,_RNCNvMs4_NtCsujLUsjorcV_16qsoripper_server5setupNtB7_30PersistedStationProfileCatalog17active_profile_ids_0B9_
FNDA:2,_RNCNvMs4_NtCsujLUsjorcV_16qsoripper_server5setupNtB7_30PersistedStationProfileCatalog18set_active_profile0B9_
FNDA:2,_RNCNvMs4_NtCsujLUsjorcV_16qsoripper_server5setupNtB7_30PersistedStationProfileCatalog21bootstrap_from_legacy0B9_
FNDA:6,_RNCNvNtCsujLUsjorcV_16qsoripper_server5setup12build_status0B5_
FNDA:6,_RNCNvNtCsujLUsjorcV_16qsoripper_server5setup12build_statuss0_0B5_
FNDA:6,_RNCNvNtCsujLUsjorcV_16qsoripper_server5setup12build_statuss_0B5_
FNDA:0,_RNCNvNtCsujLUsjorcV_16qsoripper_server5setup19default_config_path0B5_
FNDA:0,_RNCNvNtCsujLUsjorcV_16qsoripper_server5setup19generate_profile_id0B5_
FNDA:2,_RNCNvNtCsujLUsjorcV_16qsoripper_server5setup19generate_profile_ids0_0B5_
FNDA:0,_RNCNvNtCsujLUsjorcV_16qsoripper_server5setup19generate_profile_ids1_0B5_
FNDA:2,_RNCNvNtCsujLUsjorcV_16qsoripper_server5setup19generate_profile_ids2_0B5_
FNDA:0,_RNCNvNtCsujLUsjorcV_16qsoripper_server5setup19generate_profile_ids3_0B5_
FNDA:7,_RNCNvNtCsujLUsjorcV_16qsoripper_server5setup19generate_profile_ids_0B5_
FNDA:0,_RNCNvNtCsujLUsjorcV_16qsoripper_server5setup21load_persisted_config0B5_
FNDA:0,_RNCNvNtCsujLUsjorcV_16qsoripper_server5setup21load_persisted_configs_0B5_
FNDA:0,_RNCNvNtCsujLUsjorcV_16qsoripper_server5setup22write_persisted_config0B5_
FNDA:0,_RNCNvNtCsujLUsjorcV_16qsoripper_server5setup22write_persisted_configs0_0B5_
FNDA:0,_RNCNvNtCsujLUsjorcV_16qsoripper_server5setup22write_persisted_configs_0B5_
FNDA:0,_RNCNvNtCsujLUsjorcV_16qsoripper_server5setup23suggested_log_file_path0B5_
FNDA:7,_RNvNtNtCsujLUsjorcV_16qsoripper_server5setup5tests18unique_config_path
FNDA:5,_RNvNtNtCsujLUsjorcV_16qsoripper_server5setup5tests22absolute_log_file_path
FNDA:1,_RNvNtNtCsujLUsjorcV_16qsoripper_server5setup5testss_39get_setup_status_reports_missing_config
FNDA:1,_RNvNtNtCsujLUsjorcV_16qsoripper_server5setup5testss_42save_setup_rejects_partial_qrz_credentials
FNDA:1,_RNvNtNtCsujLUsjorcV_16qsoripper_server5setup5testss_46save_setup_preserves_existing_station_profiles
FNDA:1,_RNvNtNtCsujLUsjorcV_16qsoripper_server5setup5testss_47default_config_path_ends_with_standard_filename
FNDA:1,_RNvNtNtCsujLUsjorcV_16qsoripper_server5setup5testss_56get_setup_status_flags_legacy_memory_setup_for_migration
FNDA:1,_RNvNtNtCsujLUsjorcV_16qsoripper_server5setup5testss_57save_setup_persists_config_and_hot_applies_runtime_values
FNDA:1,_RNvNtNtCsujLUsjorcV_16qsoripper_server5setup5testss_61get_setup_status_reads_legacy_sqlite_storage_as_log_file_path
FNDA:1,_RNvNtNtCsujLUsjorcV_16qsoripper_server5setup5testss_89station_profile_service_lists_legacy_profile_and_supports_activation_and_session_override
FNF:158
FNH:122
DA:43,8
DA:44,8
DA:45,8
DA:46,8
DA:47,8
DA:48,8
DA:58,3
DA:59,3
DA:60,3
DA:61,3
DA:62,3
DA:63,3
DA:71,3
DA:75,3
DA:80,5
DA:89,5
DA:97,2
DA:99,2
DA:104,0
DA:111,0
DA:116,2
DA:123,2
DA:128,0
DA:135,0
DA:140,1
DA:147,1
DA:152,1
DA:160,1
DA:165,1
DA:174,1
DA:179,0
DA:188,0
DA:198,8
DA:199,8
DA:200,8
DA:201,8
DA:202,8
DA:203,8
DA:204,8
DA:205,8
DA:207,1
DA:208,1
DA:209,1
DA:210,1
DA:211,1
DA:212,1
DA:213,1
DA:215,8
DA:216,8
DA:217,8
DA:218,8
DA:219,8
DA:220,8
DA:222,8
DA:224,5
DA:225,5
DA:226,5
DA:227,5
DA:228,5
DA:229,5
DA:230,5
DA:231,5
DA:232,5
DA:233,5
DA:234,1
DA:235,4
DA:236,4
DA:237,4
DA:238,4
DA:240,4
DA:243,4
DA:244,4
DA:247,4
DA:248,4
DA:249,4
DA:250,4
DA:251,5
DA:253,2
DA:254,2
DA:255,2
DA:256,2
DA:257,2
DA:258,2
DA:259,2
DA:260,2
DA:261,2
DA:262,2
DA:263,2
DA:265,0
DA:266,0
DA:267,0
DA:268,0
DA:269,0
DA:270,0
DA:271,0
DA:272,0
DA:273,0
DA:274,0
DA:275,0
DA:276,0
DA:277,0
DA:278,0
DA:280,2
DA:281,2
DA:282,2
DA:283,2
DA:284,2
DA:285,2
DA:286,2
DA:287,2
DA:288,2
DA:291,0
DA:292,2
DA:293,2
DA:294,2
DA:295,2
DA:296,2
DA:297,2
DA:298,2
DA:299,2
DA:300,2
DA:301,2
DA:302,2
DA:303,2
DA:304,2
DA:305,2
DA:306,2
DA:307,2
DA:308,2
DA:309,2
DA:310,2
DA:311,2
DA:312,2
DA:314,0
DA:315,0
DA:316,0
DA:317,0
DA:318,0
DA:319,0
DA:320,0
DA:321,0
DA:322,0
DA:323,0
DA:324,0
DA:325,0
DA:326,0
DA:327,0
DA:328,0
DA:329,0
DA:331,1
DA:332,1
DA:333,1
DA:334,1
DA:335,1
DA:336,1
DA:337,1
DA:338,1
DA:339,1
DA:340,1
DA:341,1
DA:342,1
DA:343,1
DA:344,1
DA:345,1
DA:346,0
DA:347,0
DA:348,1
DA:349,1
DA:350,1
DA:351,1
DA:353,2
DA:354,2
DA:355,2
DA:356,2
DA:357,2
DA:358,2
DA:359,2
DA:360,2
DA:361,2
DA:362,0
DA:363,2
DA:364,2
DA:365,1
DA:366,1
DA:367,1
DA:368,1
DA:370,2
DA:371,2
DA:372,2
DA:373,2
DA:374,2
DA:375,2
DA:376,2
DA:377,2
DA:378,2
DA:379,2
DA:380,2
DA:381,2
DA:382,2
DA:384,1
DA:385,1
DA:386,1
DA:387,1
DA:388,1
DA:389,1
DA:390,1
DA:391,0
DA:392,0
DA:395,0
DA:396,1
DA:397,1
DA:398,1
DA:399,1
DA:400,1
DA:402,0
DA:403,0
DA:404,0
DA:405,0
DA:406,0
DA:407,0
DA:408,0
DA:409,0
DA:410,0
DA:412,3
DA:413,3
DA:414,3
DA:415,3
DA:416,3
DA:417,3
DA:418,0
DA:419,0
DA:420,3
DA:421,3
DA:422,3
DA:423,3
DA:424,3
DA:425,3
DA:426,3
DA:428,3
DA:429,3
DA:431,3
DA:432,3
DA:433,3
DA:434,3
DA:435,3
DA:453,5
DA:454,5
DA:455,5
DA:456,5
DA:457,5
DA:458,5
DA:459,5
DA:460,5
DA:461,5
DA:462,5
DA:465,0
DA:466,5
DA:467,5
DA:469,5
DA:470,1
DA:471,1
DA:472,1
DA:473,1
DA:474,4
DA:476,4
DA:477,4
DA:478,4
DA:479,4
DA:480,4
DA:481,4
DA:482,4
DA:483,4
DA:484,4
DA:485,4
DA:486,4
DA:487,0
DA:488,0
DA:489,0
DA:490,0
DA:491,0
DA:492,0
DA:493,0
DA:494,0
DA:495,0
DA:496,0
DA:501,0
DA:502,0
DA:505,0
DA:508,0
DA:511,4
DA:512,4
DA:513,4
DA:514,4
DA:515,4
DA:516,4
DA:517,4
DA:518,4
DA:519,4
DA:520,4
DA:522,4
DA:525,4
DA:526,4
DA:527,4
DA:528,4
DA:529,4
DA:530,4
DA:531,4
DA:532,4
DA:533,4
DA:534,4
DA:536,4
DA:537,5
DA:539,7
DA:540,7
DA:541,7
DA:543,7
DA:544,0
DA:545,0
DA:546,0
DA:548,7
DA:549,7
DA:550,7
DA:551,7
DA:553,0
DA:556,7
DA:557,7
DA:558,7
DA:560,7
DA:561,2
DA:562,5
DA:563,7
DA:564,2
DA:565,5
DA:567,7
DA:568,7
DA:570,32
DA:571,32
DA:572,32
DA:573,32
DA:575,13
DA:576,13
DA:577,12
DA:579,1
DA:581,13
DA:583,2
DA:584,2
DA:585,2
DA:586,0
DA:587,0
DA:589,2
DA:591,21
DA:592,21
DA:593,0
DA:596,21
DA:597,21
DA:599,26
DA:600,26
DA:601,26
DA:603,12
DA:604,12
DA:605,12
DA:606,12
DA:608,2
DA:609,2
DA:610,2
DA:611,2
DA:612,4
DA:613,2
DA:614,2
DA:616,3
DA:617,3
DA:618,3
DA:619,3
DA:620,6
DA:621,3
DA:622,3
DA:624,2
DA:625,2
DA:626,2
DA:627,2
DA:628,2
DA:629,2
DA:630,2
DA:631,2
DA:632,2
DA:633,2
DA:634,2
DA:636,2
DA:637,2
DA:638,2
DA:640,0
DA:641,0
DA:642,0
DA:643,0
DA:644,0
DA:645,0
DA:647,1
DA:648,1
DA:649,1
DA:650,1
DA:651,1
DA:652,1
DA:654,9
DA:655,9
DA:656,0
DA:657,9
DA:659,9
DA:668,14
DA:669,14
DA:670,14
DA:680,14
DA:681,14
DA:682,14
DA:683,14
DA:712,26
DA:713,26
DA:714,26
DA:715,26
DA:716,26
DA:718,56
DA:719,56
DA:720,56
DA:721,56
DA:722,56
DA:723,56
DA:725,56
DA:726,56
DA:727,56
DA:728,56
DA:729,63
DA:730,56
DA:732,12
DA:733,12
DA:734,0
DA:736,12
DA:738,12
DA:740,5
DA:741,5
DA:742,5
DA:743,5
DA:744,5
DA:745,0
DA:746,0
DA:747,0
DA:748,0
DA:750,5
DA:752,5
DA:754,6
DA:755,6
DA:756,6
DA:757,6
DA:758,6
DA:759,6
DA:760,6
DA:761,6
DA:762,6
DA:763,6
DA:764,6
DA:765,6
DA:766,6
DA:767,6
DA:768,6
DA:769,6
DA:770,6
DA:772,6
DA:773,6
DA:774,6
DA:775,6
DA:776,1
DA:777,1
DA:778,5
DA:779,5
DA:780,5
DA:781,5
DA:782,5
DA:783,5
DA:785,6
DA:786,4
DA:787,4
DA:789,6
DA:790,6
DA:792,0
DA:793,0
DA:794,0
DA:795,0
DA:796,0
DA:797,0
DA:798,0
DA:799,0
DA:800,0
DA:801,0
DA:802,0
DA:803,0
DA:804,0
DA:805,0
DA:806,0
DA:807,0
DA:808,0
DA:809,0
DA:810,0
DA:811,0
DA:812,0
DA:814,1
DA:815,1
DA:816,1
DA:817,1
DA:818,1
DA:819,1
DA:820,1
DA:821,1
DA:822,1
DA:823,1
DA:824,2
DA:826,1
DA:827,1
DA:829,0
DA:831,1
DA:833,9
DA:834,9
DA:835,2
DA:836,2
DA:837,2
DA:838,2
DA:839,2
DA:840,7
DA:841,9
DA:842,5
DA:843,4
DA:844,9
DA:855,37
DA:856,37
DA:857,37
DA:859,7
DA:860,7
DA:861,7
DA:862,7
DA:863,7
DA:864,7
DA:865,7
DA:869,19
DA:870,19
DA:871,19
DA:872,19
DA:873,19
DA:874,19
DA:875,19
DA:876,19
DA:877,19
DA:878,19
DA:879,19
DA:880,19
DA:881,19
DA:882,19
DA:883,19
DA:884,19
DA:885,19
DA:886,19
DA:888,44
DA:889,44
DA:890,44
DA:891,44
DA:892,44
DA:893,44
DA:894,44
DA:895,44
DA:896,44
DA:897,44
DA:898,44
DA:899,44
DA:900,44
DA:901,44
DA:902,44
DA:903,44
DA:904,44
DA:905,44
DA:907,5
DA:908,5
DA:909,5
DA:918,6
DA:921,6
DA:922,6
DA:923,6
DA:924,0
DA:925,0
DA:926,6
DA:945,6
DA:947,9
DA:948,9
DA:949,9
DA:950,9
DA:951,9
DA:952,9
DA:954,8
DA:955,8
DA:956,6
DA:957,2
DA:959,2
DA:960,2
DA:961,2
DA:962,0
DA:963,0
DA:964,0
DA:966,0
DA:967,2
DA:968,2
DA:969,2
DA:970,2
DA:971,2
DA:972,2
DA:973,8
DA:975,7
DA:976,7
DA:977,7
DA:978,0
DA:979,0
DA:980,0
DA:982,0
DA:983,0
DA:985,7
DA:986,0
DA:987,0
DA:988,0
DA:990,0
DA:991,7
DA:992,0
DA:993,0
DA:994,0
DA:996,0
DA:997,7
DA:999,8
DA:1000,8
DA:1001,8
DA:1002,8
DA:1003,8
DA:1004,8
DA:1005,8
DA:1006,8
DA:1007,8
DA:1008,8
DA:1013,8
DA:1014,8
DA:1015,8
DA:1016,8
DA:1017,8
DA:1018,8
DA:1019,8
DA:1020,8
DA:1021,8
DA:1022,8
DA:1023,8
DA:1024,8
DA:1025,8
DA:1026,8
DA:1027,8
DA:1028,8
DA:1029,6
DA:1030,6
DA:1031,8
DA:1032,8
DA:1034,8
DA:1036,8
DA:1037,8
DA:1038,2
DA:1041,6
DA:1042,6
DA:1044,6
DA:1045,1
DA:1046,1
DA:1047,1
DA:1048,1
DA:1049,1
DA:1050,1
DA:1051,0
DA:1052,0
DA:1053,5
DA:1055,6
DA:1056,0
DA:1057,6
DA:1058,6
DA:1059,0
DA:1060,0
DA:1061,6
DA:1063,6
DA:1064,0
DA:1065,0
DA:1066,0
DA:1067,0
DA:1068,6
DA:1070,6
DA:1071,8
DA:1073,273
DA:1074,273
DA:1075,103
DA:1076,0
DA:1078,103
DA:1080,273
DA:1082,54
DA:1083,54
DA:1084,44
DA:1085,0
DA:1087,44
DA:1089,54
DA:1091,72
DA:1092,72
DA:1093,72
DA:1094,300
DA:1095,300
DA:1096,300
DA:1097,300
DA:1098,300
DA:1099,0
DA:1100,0
DA:1101,0
DA:1104,72
DA:1105,72
DA:1107,7
DA:1108,7
DA:1109,7
DA:1110,7
DA:1111,7
DA:1112,7
DA:1113,7
DA:1114,7
DA:1115,7
DA:1116,7
DA:1117,7
DA:1118,7
DA:1119,7
DA:1120,7
DA:1121,7
DA:1122,7
DA:1123,2
DA:1124,2
DA:1125,7
DA:1127,7
DA:1128,7
DA:1129,0
DA:1131,0
DA:1132,0
DA:1133,0
DA:1134,0
DA:1135,0
DA:1136,0
DA:1138,0
DA:1139,7
DA:1164,7
DA:1165,7
DA:1166,7
DA:1167,7
DA:1168,7
DA:1169,7
DA:1170,7
DA:1171,7
DA:1172,7
DA:1173,7
DA:1174,7
DA:1175,7
DA:1177,5
DA:1178,5
DA:1179,5
DA:1180,5
DA:1181,5
DA:1182,5
DA:1183,5
DA:1184,5
DA:1187,1
DA:1188,1
DA:1189,1
DA:1190,1
DA:1191,1
DA:1193,1
DA:1194,1
DA:1195,1
DA:1196,1
DA:1197,1
DA:1199,1
DA:1201,1
DA:1202,1
DA:1203,1
DA:1204,1
DA:1205,1
DA:1208,1
DA:1209,1
DA:1210,1
DA:1211,1
DA:1212,1
DA:1215,1
DA:1216,1
DA:1217,1
DA:1218,1
DA:1219,1
DA:1220,1
DA:1229,1
DA:1231,1
DA:1232,1
DA:1233,1
DA:1235,1
DA:1236,1
DA:1237,1
DA:1238,1
DA:1239,1
DA:1241,1
DA:1243,1
DA:1244,1
DA:1245,1
DA:1246,1
DA:1247,1
DA:1248,1
DA:1250,1
DA:1251,1
DA:1254,1
DA:1255,1
DA:1256,1
DA:1257,1
DA:1258,1
DA:1259,1
DA:1267,1
DA:1269,1
DA:1270,1
DA:1271,1
DA:1273,1
DA:1274,1
DA:1275,1
DA:1276,1
DA:1277,1
DA:1279,1
DA:1281,1
DA:1282,1
DA:1283,1
DA:1284,1
DA:1285,1
DA:1286,1
DA:1287,1
DA:1288,1
DA:1290,1
DA:1291,1
DA:1294,1
DA:1295,1
DA:1296,1
DA:1297,1
DA:1298,1
DA:1299,1
DA:1301,1
DA:1302,1
DA:1303,1
DA:1304,1
DA:1305,1
DA:1306,1
DA:1307,1
DA:1308,1
DA:1309,1
DA:1310,1
DA:1311,1
DA:1312,1
DA:1313,1
DA:1314,1
DA:1315,1
DA:1316,1
DA:1317,1
DA:1318,1
DA:1319,1
DA:1321,1
DA:1322,1
DA:1323,1
DA:1324,1
DA:1325,1
DA:1326,1
DA:1327,1
DA:1328,1
DA:1330,1
DA:1331,1
DA:1332,1
DA:1333,1
DA:1334,1
DA:1335,1
DA:1336,1
DA:1337,1
DA:1338,1
DA:1339,1
DA:1340,1
DA:1342,1
DA:1344,1
DA:1346,1
DA:1347,1
DA:1349,1
DA:1350,1
DA:1351,1
DA:1353,1
DA:1354,1
DA:1355,1
DA:1356,1
DA:1359,1
DA:1360,1
DA:1361,1
DA:1363,1
DA:1364,1
DA:1365,1
DA:1369,1
DA:1370,1
DA:1371,1
DA:1372,1
DA:1373,1
DA:1374,1
DA:1375,1
DA:1376,1
DA:1377,1
DA:1379,1
DA:1380,1
DA:1381,1
DA:1382,1
DA:1383,1
DA:1384,1
DA:1385,1
DA:1386,1
DA:1387,1
DA:1388,1
DA:1389,1
DA:1390,1
DA:1391,1
DA:1392,1
DA:1393,1
DA:1394,1
DA:1395,1
DA:1396,1
DA:1398,1
DA:1399,1
DA:1400,1
DA:1401,1
DA:1402,1
DA:1403,1
DA:1404,1
DA:1405,1
DA:1406,1
DA:1407,1
DA:1408,1
DA:1409,1
DA:1410,1
DA:1411,1
DA:1412,1
DA:1414,1
DA:1415,1
DA:1416,1
DA:1417,1
DA:1418,1
DA:1419,1
DA:1420,1
DA:1421,1
DA:1422,1
DA:1423,1
DA:1424,1
DA:1425,1
DA:1426,1
DA:1427,1
DA:1428,1
DA:1429,1
DA:1430,1
DA:1431,1
DA:1432,1
DA:1434,1
DA:1436,1
DA:1437,1
DA:1438,1
DA:1439,1
DA:1441,1
DA:1442,1
DA:1443,1
DA:1445,1
DA:1446,1
DA:1447,1
DA:1448,1
DA:1450,1
DA:1452,1
DA:1453,1
DA:1454,1
DA:1455,1
DA:1458,1
DA:1459,1
DA:1460,1
DA:1461,1
DA:1462,1
DA:1463,1
DA:1464,1
DA:1465,1
DA:1466,1
DA:1467,1
DA:1468,1
DA:1469,2
DA:1470,1
DA:1471,1
DA:1472,1
DA:1473,1
DA:1474,1
DA:1475,1
DA:1476,1
DA:1477,1
DA:1479,1
DA:1480,1
DA:1482,1
DA:1483,1
DA:1484,1
DA:1485,1
DA:1487,1
DA:1488,1
DA:1489,1
DA:1492,1
DA:1493,1
DA:1494,1
DA:1495,1
DA:1496,1
DA:1497,1
DA:1499,1
DA:1500,1
DA:1501,1
DA:1502,1
DA:1503,1
DA:1504,1
DA:1505,1
DA:1506,1
DA:1507,1
DA:1508,1
DA:1509,1
DA:1510,1
DA:1511,1
DA:1512,1
DA:1513,1
DA:1514,1
DA:1516,1
DA:1517,1
DA:1521,1
DA:1522,1
DA:1523,1
DA:1524,1
DA:1525,1
DA:1526,1
DA:1527,1
DA:1528,1
DA:1529,1
DA:1531,1
DA:1532,1
DA:1533,1
DA:1534,1
DA:1535,1
DA:1536,1
DA:1537,1
DA:1538,1
DA:1539,1
DA:1540,1
DA:1541,1
DA:1542,1
DA:1543,1
DA:1544,1
DA:1545,1
DA:1546,1
DA:1547,1
DA:1548,1
DA:1550,1
DA:1551,1
DA:1552,1
DA:1553,1
DA:1554,1
DA:1555,1
DA:1556,1
DA:1557,1
DA:1558,1
DA:1559,1
DA:1560,1
DA:1561,1
DA:1562,1
DA:1563,1
DA:1564,1
DA:1565,1
DA:1567,1
DA:1569,1
DA:1570,1
DA:1571,1
DA:1572,1
DA:1573,1
DA:1574,1
DA:1575,1
DA:1576,1
DA:1577,1
DA:1578,1
DA:1579,1
DA:1580,1
DA:1581,2
DA:1582,1
DA:1583,1
DA:1585,1
DA:1586,1
DA:1587,1
DA:1588,1
DA:1589,1
DA:1590,1
DA:1591,1
DA:1592,1
DA:1593,1
DA:1594,1
DA:1596,1
DA:1597,1
DA:1598,1
DA:1599,1
DA:1600,1
DA:1601,1
DA:1602,1
DA:1604,1
DA:1605,1
DA:1606,1
DA:1608,1
DA:1609,1
DA:1610,1
DA:1611,1
DA:1614,1
DA:1615,1
DA:1616,1
DA:1617,1
DA:1618,1
DA:1619,1
DA:1620,1
DA:1621,1
DA:1622,1
DA:1623,1
DA:1624,1
DA:1625,1
DA:1626,1
DA:1627,1
DA:1629,1
DA:1630,1
DA:1631,1
DA:1633,1
DA:1634,1
DA:1635,1
DA:1636,1
DA:1639,1
DA:1640,1
DA:1641,1
DA:1642,1
DA:1644,1
DA:1645,1
DA:1646,1
DA:1649,1
DA:1650,1
DA:1652,1
DA:1654,1
DA:1656,1
BRF:0
BRH:0
LF:1240
LH:1056
end_of_record
SF:C:\Users\randy\Git\qsoripper-adif-refresh\src\rust\qsoripper-server\src\station_profile_support.rs
FN:132,_RINvNtCsujLUsjorcV_16qsoripper_server23station_profile_support22insert_optional_numbermEB4_
FN:16,_RINvNtCsujLUsjorcV_16qsoripper_server23station_profile_support25normalize_station_profileNvNtB4_14runtime_config35normalize_optional_station_callsignNvB1r_33normalize_optional_runtime_stringEB4_
FN:16,_RINvNtCsujLUsjorcV_16qsoripper_server23station_profile_support25normalize_station_profileNvNtB4_5setup27normalize_optional_callsignNvB1r_25normalize_optional_stringEB4_
FN:22,_RNCINvNtCsujLUsjorcV_16qsoripper_server23station_profile_support25normalize_station_profileNvNtB6_14runtime_config35normalize_optional_station_callsignNvB1t_33normalize_optional_runtime_stringE0B6_
FN:24,_RNCINvNtCsujLUsjorcV_16qsoripper_server23station_profile_support25normalize_station_profileNvNtB6_14runtime_config35normalize_optional_station_callsignNvB1t_33normalize_optional_runtime_stringEs_0B6_
FN:22,_RNCINvNtCsujLUsjorcV_16qsoripper_server23station_profile_support25normalize_station_profileNvNtB6_5setup27normalize_optional_callsignNvB1t_25normalize_optional_stringE0B6_
FN:24,_RNCINvNtCsujLUsjorcV_16qsoripper_server23station_profile_support25normalize_station_profileNvNtB6_5setup27normalize_optional_callsignNvB1t_25normalize_optional_stringEs_0B6_
FN:141,_RNvNtCsujLUsjorcV_16qsoripper_server23station_profile_support21insert_optional_float
FN:126,_RNvNtCsujLUsjorcV_16qsoripper_server23station_profile_support22insert_optional_string
FN:106,_RNvNtCsujLUsjorcV_16qsoripper_server23station_profile_support31validate_optional_bounded_float
FN:95,_RNvNtCsujLUsjorcV_16qsoripper_server23station_profile_support34validate_optional_positive_integer
FN:55,_RNvNtCsujLUsjorcV_16qsoripper_server23station_profile_support37insert_station_profile_runtime_values
FNDA:30,_RINvNtCsujLUsjorcV_16qsoripper_server23station_profile_support22insert_optional_numbermEB4_
FNDA:2,_RINvNtCsujLUsjorcV_16qsoripper_server23station_profile_support25normalize_station_profileNvNtB4_14runtime_config35normalize_optional_station_callsignNvB1r_33normalize_optional_runtime_stringEB4_
FNDA:8,_RINvNtCsujLUsjorcV_16qsoripper_server23station_profile_support25normalize_station_profileNvNtB4_5setup27normalize_optional_callsignNvB1r_25normalize_optional_stringEB4_
FNDA:0,_RNCINvNtCsujLUsjorcV_16qsoripper_server23station_profile_support25normalize_station_profileNvNtB6_14runtime_config35normalize_optional_station_callsignNvB1t_33normalize_optional_runtime_stringE0B6_
FNDA:0,_RNCINvNtCsujLUsjorcV_16qsoripper_server23station_profile_support25normalize_station_profileNvNtB6_14runtime_config35normalize_optional_station_callsignNvB1t_33normalize_optional_runtime_stringEs_0B6_
FNDA:0,_RNCINvNtCsujLUsjorcV_16qsoripper_server23station_profile_support25normalize_station_profileNvNtB6_5setup27normalize_optional_callsignNvB1t_25normalize_optional_stringE0B6_
FNDA:2,_RNCINvNtCsujLUsjorcV_16qsoripper_server23station_profile_support25normalize_station_profileNvNtB6_5setup27normalize_optional_callsignNvB1t_25normalize_optional_stringEs_0B6_
FNDA:20,_RNvNtCsujLUsjorcV_16qsoripper_server23station_profile_support21insert_optional_float
FNDA:90,_RNvNtCsujLUsjorcV_16qsoripper_server23station_profile_support22insert_optional_string
FNDA:20,_RNvNtCsujLUsjorcV_16qsoripper_server23station_profile_support31validate_optional_bounded_float
FNDA:30,_RNvNtCsujLUsjorcV_16qsoripper_server23station_profile_support34validate_optional_positive_integer
FNDA:10,_RNvNtCsujLUsjorcV_16qsoripper_server23station_profile_support37insert_station_profile_runtime_values
FNF:9
FNH:8
DA:16,10
DA:17,10
DA:18,10
DA:19,10
DA:20,10
DA:21,10
DA:22,10
DA:23,10
DA:24,10
DA:25,10
DA:26,10
DA:27,10
DA:28,10
DA:29,10
DA:30,10
DA:31,10
DA:32,10
DA:33,10
DA:34,10
DA:36,10
DA:38,10
DA:40,10
DA:41,10
DA:42,10
DA:43,10
DA:46,0
DA:48,10
DA:49,0
DA:50,10
DA:52,10
DA:53,10
DA:55,10
DA:56,10
DA:57,10
DA:58,10
DA:59,10
DA:60,10
DA:61,10
DA:62,10
DA:64,10
DA:65,10
DA:66,10
DA:67,10
DA:69,10
DA:70,10
DA:71,10
DA:72,10
DA:74,10
DA:75,10
DA:76,10
DA:77,10
DA:79,10
DA:80,10
DA:81,10
DA:82,10
DA:83,10
DA:84,10
DA:85,10
DA:86,10
DA:88,10
DA:89,10
DA:90,10
DA:91,10
DA:92,10
DA:93,10
DA:95,30
DA:96,30
DA:97,30
DA:98,30
DA:99,30
DA:100,0
DA:101,0
DA:102,30
DA:104,30
DA:106,20
DA:107,20
DA:108,20
DA:109,20
DA:110,20
DA:111,20
DA:112,20
DA:113,20
DA:116,0
DA:117,0
DA:118,0
DA:119,0
DA:120,0
DA:121,0
DA:123,0
DA:124,20
DA:126,90
DA:127,90
DA:128,41
DA:129,49
DA:130,90
DA:132,30
DA:133,30
DA:134,30
DA:136,30
DA:137,0
DA:138,30
DA:139,30
DA:141,20
DA:142,20
DA:143,0
DA:144,20
DA:145,20
BRF:0
BRH:0
LF:109
LH:95
end_of_record
SF:C:\Users\randy\Git\qsoripper-adif-refresh\src\rust\qsoripper-storage-memory\src\lib.rs
FN:188,_RNvCsdFSXKvCgM1O_24qsoripper_storage_memory13matches_query
FN:238,_RNvCsdFSXKvCgM1O_24qsoripper_storage_memory19timestamp_to_millis
FN:30,_RNvMCsdFSXKvCgM1O_24qsoripper_storage_memoryNtB2_13MemoryStorage3new
FN:71,_RNvXs3_CsdFSXKvCgM1O_24qsoripper_storage_memoryNtB5_13MemoryStorageNtNtNtCsgPbJLsevrBc_14qsoripper_core7storage5ports12LogbookStore10delete_qso
FN:51,_RNvXs3_CsdFSXKvCgM1O_24qsoripper_storage_memoryNtB5_13MemoryStorageNtNtNtCsgPbJLsevrBc_14qsoripper_core7storage5ports12LogbookStore10insert_qso
FN:129,_RNvXs3_CsdFSXKvCgM1O_24qsoripper_storage_memoryNtB5_13MemoryStorageNtNtNtCsgPbJLsevrBc_14qsoripper_core7storage5ports12LogbookStore10qso_counts
FN:61,_RNvXs3_CsdFSXKvCgM1O_24qsoripper_storage_memoryNtB5_13MemoryStorageNtNtNtCsgPbJLsevrBc_14qsoripper_core7storage5ports12LogbookStore10update_qso
FN:145,_RNvXs3_CsdFSXKvCgM1O_24qsoripper_storage_memoryNtB5_13MemoryStorageNtNtNtCsgPbJLsevrBc_14qsoripper_core7storage5ports12LogbookStore17get_sync_metadata
FN:150,_RNvXs3_CsdFSXKvCgM1O_24qsoripper_storage_memoryNtB5_13MemoryStorageNtNtNtCsgPbJLsevrBc_14qsoripper_core7storage5ports12LogbookStore20upsert_sync_metadata
FN:76,_RNvXs3_CsdFSXKvCgM1O_24qsoripper_storage_memoryNtB5_13MemoryStorageNtNtNtCsgPbJLsevrBc_14qsoripper_core7storage5ports12LogbookStore7get_qso
FN:81,_RNvXs3_CsdFSXKvCgM1O_24qsoripper_storage_memoryNtB5_13MemoryStorageNtNtNtCsgPbJLsevrBc_14qsoripper_core7storage5ports12LogbookStore9list_qsos
FN:162,_RNvXs4_CsdFSXKvCgM1O_24qsoripper_storage_memoryNtB5_13MemoryStorageNtNtNtCsgPbJLsevrBc_14qsoripper_core7storage5ports19LookupSnapshotStore19get_lookup_snapshot
FN:179,_RNvXs4_CsdFSXKvCgM1O_24qsoripper_storage_memoryNtB5_13MemoryStorageNtNtNtCsgPbJLsevrBc_14qsoripper_core7storage5ports19LookupSnapshotStore22delete_lookup_snapshot
FN:170,_RNvXs4_CsdFSXKvCgM1O_24qsoripper_storage_memoryNtB5_13MemoryStorageNtNtNtCsgPbJLsevrBc_14qsoripper_core7storage5ports19LookupSnapshotStore22upsert_lookup_snapshot
FN:44,_RNvXs_CsdFSXKvCgM1O_24qsoripper_storage_memoryNtB4_13MemoryStorageNtNtNtCsgPbJLsevrBc_14qsoripper_core7storage5ports13EngineStorage12backend_name
FN:40,_RNvXs_CsdFSXKvCgM1O_24qsoripper_storage_memoryNtB4_13MemoryStorageNtNtNtCsgPbJLsevrBc_14qsoripper_core7storage5ports13EngineStorage16lookup_snapshots
FN:36,_RNvXs_CsdFSXKvCgM1O_24qsoripper_storage_memoryNtB4_13MemoryStorageNtNtNtCsgPbJLsevrBc_14qsoripper_core7storage5ports13EngineStorage7logbook
FN:115,_RNCNCNCNvXs3_CsdFSXKvCgM1O_24qsoripper_storage_memoryNtBb_13MemoryStorageNtNtNtCsgPbJLsevrBc_14qsoripper_core7storage5ports12LogbookStore9list_qsos0s2_00Bb_
FN:134,_RNCNCNvXs3_CsdFSXKvCgM1O_24qsoripper_storage_memoryNtB9_13MemoryStorageNtNtNtCsgPbJLsevrBc_14qsoripper_core7storage5ports12LogbookStore10qso_counts00B9_
FN:141,_RNCNCNvXs3_CsdFSXKvCgM1O_24qsoripper_storage_memoryNtB9_13MemoryStorageNtNtNtCsgPbJLsevrBc_14qsoripper_core7storage5ports12LogbookStore10qso_counts0s0_0B9_
FN:139,_RNCNCNvXs3_CsdFSXKvCgM1O_24qsoripper_storage_memoryNtB9_13MemoryStorageNtNtNtCsgPbJLsevrBc_14qsoripper_core7storage5ports12LogbookStore10qso_counts0s_0B9_
FN:86,_RNCNCNvXs3_CsdFSXKvCgM1O_24qsoripper_storage_memoryNtB9_13MemoryStorageNtNtNtCsgPbJLsevrBc_14qsoripper_core7storage5ports12LogbookStore9list_qsos00B9_
FN:100,_RNCNCNvXs3_CsdFSXKvCgM1O_24qsoripper_storage_memoryNtB9_13MemoryStorageNtNtNtCsgPbJLsevrBc_14qsoripper_core7storage5ports12LogbookStore9list_qsos0s0_0B9_
FN:110,_RNCNCNvXs3_CsdFSXKvCgM1O_24qsoripper_storage_memoryNtB9_13MemoryStorageNtNtNtCsgPbJLsevrBc_14qsoripper_core7storage5ports12LogbookStore9list_qsos0s1_0B9_
FN:113,_RNCNCNvXs3_CsdFSXKvCgM1O_24qsoripper_storage_memoryNtB9_13MemoryStorageNtNtNtCsgPbJLsevrBc_14qsoripper_core7storage5ports12LogbookStore9list_qsos0s2_0B9_
FN:92,_RNCNCNvXs3_CsdFSXKvCgM1O_24qsoripper_storage_memoryNtB9_13MemoryStorageNtNtNtCsgPbJLsevrBc_14qsoripper_core7storage5ports12LogbookStore9list_qsos0s_0B9_
FN:239,_RNCNvCsdFSXKvCgM1O_24qsoripper_storage_memory19timestamp_to_millis0B3_
FN:188,_RNvCsaQT5tdxFSLB_24qsoripper_storage_memory13matches_query
FN:238,_RNvCsaQT5tdxFSLB_24qsoripper_storage_memory19timestamp_to_millis
FN:30,_RNvMCsaQT5tdxFSLB_24qsoripper_storage_memoryNtB2_13MemoryStorage3new
FN:71,_RNvXs3_CsaQT5tdxFSLB_24qsoripper_storage_memoryNtB5_13MemoryStorageNtNtNtCsgPbJLsevrBc_14qsoripper_core7storage5ports12LogbookStore10delete_qso
FN:51,_RNvXs3_CsaQT5tdxFSLB_24qsoripper_storage_memoryNtB5_13MemoryStorageNtNtNtCsgPbJLsevrBc_14qsoripper_core7storage5ports12LogbookStore10insert_qso
FN:129,_RNvXs3_CsaQT5tdxFSLB_24qsoripper_storage_memoryNtB5_13MemoryStorageNtNtNtCsgPbJLsevrBc_14qsoripper_core7storage5ports12LogbookStore10qso_counts
FN:61,_RNvXs3_CsaQT5tdxFSLB_24qsoripper_storage_memoryNtB5_13MemoryStorageNtNtNtCsgPbJLsevrBc_14qsoripper_core7storage5ports12LogbookStore10update_qso
FN:145,_RNvXs3_CsaQT5tdxFSLB_24qsoripper_storage_memoryNtB5_13MemoryStorageNtNtNtCsgPbJLsevrBc_14qsoripper_core7storage5ports12LogbookStore17get_sync_metadata
FN:150,_RNvXs3_CsaQT5tdxFSLB_24qsoripper_storage_memoryNtB5_13MemoryStorageNtNtNtCsgPbJLsevrBc_14qsoripper_core7storage5ports12LogbookStore20upsert_sync_metadata
FN:76,_RNvXs3_CsaQT5tdxFSLB_24qsoripper_storage_memoryNtB5_13MemoryStorageNtNtNtCsgPbJLsevrBc_14qsoripper_core7storage5ports12LogbookStore7get_qso
FN:81,_RNvXs3_CsaQT5tdxFSLB_24qsoripper_storage_memoryNtB5_13MemoryStorageNtNtNtCsgPbJLsevrBc_14qsoripper_core7storage5ports12LogbookStore9list_qsos
FN:162,_RNvXs4_CsaQT5tdxFSLB_24qsoripper_storage_memoryNtB5_13MemoryStorageNtNtNtCsgPbJLsevrBc_14qsoripper_core7storage5ports19LookupSnapshotStore19get_lookup_snapshot
FN:179,_RNvXs4_CsaQT5tdxFSLB_24qsoripper_storage_memoryNtB5_13MemoryStorageNtNtNtCsgPbJLsevrBc_14qsoripper_core7storage5ports19LookupSnapshotStore22delete_lookup_snapshot
FN:170,_RNvXs4_CsaQT5tdxFSLB_24qsoripper_storage_memoryNtB5_13MemoryStorageNtNtNtCsgPbJLsevrBc_14qsoripper_core7storage5ports19LookupSnapshotStore22upsert_lookup_snapshot
FN:44,_RNvXs_CsaQT5tdxFSLB_24qsoripper_storage_memoryNtB4_13MemoryStorageNtNtNtCsgPbJLsevrBc_14qsoripper_core7storage5ports13EngineStorage12backend_name
FN:40,_RNvXs_CsaQT5tdxFSLB_24qsoripper_storage_memoryNtB4_13MemoryStorageNtNtNtCsgPbJLsevrBc_14qsoripper_core7storage5ports13EngineStorage16lookup_snapshots
FN:36,_RNvXs_CsaQT5tdxFSLB_24qsoripper_storage_memoryNtB4_13MemoryStorageNtNtNtCsgPbJLsevrBc_14qsoripper_core7storage5ports13EngineStorage7logbook
FN:115,_RNCNCNCNvXs3_CsaQT5tdxFSLB_24qsoripper_storage_memoryNtBb_13MemoryStorageNtNtNtCsgPbJLsevrBc_14qsoripper_core7storage5ports12LogbookStore9list_qsos0s2_00Bb_
FN:134,_RNCNCNvXs3_CsaQT5tdxFSLB_24qsoripper_storage_memoryNtB9_13MemoryStorageNtNtNtCsgPbJLsevrBc_14qsoripper_core7storage5ports12LogbookStore10qso_counts00B9_
FN:141,_RNCNCNvXs3_CsaQT5tdxFSLB_24qsoripper_storage_memoryNtB9_13MemoryStorageNtNtNtCsgPbJLsevrBc_14qsoripper_core7storage5ports12LogbookStore10qso_counts0s0_0B9_
FN:139,_RNCNCNvXs3_CsaQT5tdxFSLB_24qsoripper_storage_memoryNtB9_13MemoryStorageNtNtNtCsgPbJLsevrBc_14qsoripper_core7storage5ports12LogbookStore10qso_counts0s_0B9_
FN:86,_RNCNCNvXs3_CsaQT5tdxFSLB_24qsoripper_storage_memoryNtB9_13MemoryStorageNtNtNtCsgPbJLsevrBc_14qsoripper_core7storage5ports12LogbookStore9list_qsos00B9_
FN:100,_RNCNCNvXs3_CsaQT5tdxFSLB_24qsoripper_storage_memoryNtB9_13MemoryStorageNtNtNtCsgPbJLsevrBc_14qsoripper_core7storage5ports12LogbookStore9list_qsos0s0_0B9_
FN:110,_RNCNCNvXs3_CsaQT5tdxFSLB_24qsoripper_storage_memoryNtB9_13MemoryStorageNtNtNtCsgPbJLsevrBc_14qsoripper_core7storage5ports12LogbookStore9list_qsos0s1_0B9_
FN:113,_RNCNCNvXs3_CsaQT5tdxFSLB_24qsoripper_storage_memoryNtB9_13MemoryStorageNtNtNtCsgPbJLsevrBc_14qsoripper_core7storage5ports12LogbookStore9list_qsos0s2_0B9_
FN:92,_RNCNCNvXs3_CsaQT5tdxFSLB_24qsoripper_storage_memoryNtB9_13MemoryStorageNtNtNtCsgPbJLsevrBc_14qsoripper_core7storage5ports12LogbookStore9list_qsos0s_0B9_
FN:239,_RNCNvCsaQT5tdxFSLB_24qsoripper_storage_memory19timestamp_to_millis0B3_
FN:322,_RNCNCNvNtCsaQT5tdxFSLB_24qsoripper_storage_memory5testss_50memory_storage_lists_qsos_with_filters_and_sorting00B7_
FN:338,_RNCNCNvNtCsaQT5tdxFSLB_24qsoripper_storage_memory5testss_50memory_storage_lists_qsos_with_filters_and_sorting0s_0B7_
FN:344,_RNCNvNtCsaQT5tdxFSLB_24qsoripper_storage_memory5testss_40memory_storage_persists_lookup_snapshots0B5_
FN:283,_RNCNvNtCsaQT5tdxFSLB_24qsoripper_storage_memory5testss_50memory_storage_lists_qsos_with_filters_and_sorting0B5_
FN:261,_RNCNvNtCsaQT5tdxFSLB_24qsoripper_storage_memory5testss_54memory_storage_round_trips_qsos_through_logbook_engine0B5_
FN:344,_RNvNtCsaQT5tdxFSLB_24qsoripper_storage_memory5testss_40memory_storage_persists_lookup_snapshots
FN:382,_RNvNtCsaQT5tdxFSLB_24qsoripper_storage_memory5testss_47timestamp_to_millis_saturates_negative_overflow
FN:372,_RNvNtCsaQT5tdxFSLB_24qsoripper_storage_memory5testss_47timestamp_to_millis_saturates_positive_overflow
FN:283,_RNvNtCsaQT5tdxFSLB_24qsoripper_storage_memory5testss_50memory_storage_lists_qsos_with_filters_and_sorting
FN:261,_RNvNtCsaQT5tdxFSLB_24qsoripper_storage_memory5testss_54memory_storage_round_trips_qsos_through_logbook_engine
FNDA:13,_RNvCsdFSXKvCgM1O_24qsoripper_storage_memory13matches_query
FNDA:22,_RNvCsdFSXKvCgM1O_24qsoripper_storage_memory19timestamp_to_millis
FNDA:36,_RNvMCsdFSXKvCgM1O_24qsoripper_storage_memoryNtB2_13MemoryStorage3new
FNDA:2,_RNvXs3_CsdFSXKvCgM1O_24qsoripper_storage_memoryNtB5_13MemoryStorageNtNtNtCsgPbJLsevrBc_14qsoripper_core7storage5ports12LogbookStore10delete_qso
FNDA:11,_RNvXs3_CsdFSXKvCgM1O_24qsoripper_storage_memoryNtB5_13MemoryStorageNtNtNtCsgPbJLsevrBc_14qsoripper_core7storage5ports12LogbookStore10insert_qso
FNDA:3,_RNvXs3_CsdFSXKvCgM1O_24qsoripper_storage_memoryNtB5_13MemoryStorageNtNtNtCsgPbJLsevrBc_14qsoripper_core7storage5ports12LogbookStore10qso_counts
FNDA:4,_RNvXs3_CsdFSXKvCgM1O_24qsoripper_storage_memoryNtB5_13MemoryStorageNtNtNtCsgPbJLsevrBc_14qsoripper_core7storage5ports12LogbookStore10update_qso
FNDA:3,_RNvXs3_CsdFSXKvCgM1O_24qsoripper_storage_memoryNtB5_13MemoryStorageNtNtNtCsgPbJLsevrBc_14qsoripper_core7storage5ports12LogbookStore17get_sync_metadata
FNDA:0,_RNvXs3_CsdFSXKvCgM1O_24qsoripper_storage_memoryNtB5_13MemoryStorageNtNtNtCsgPbJLsevrBc_14qsoripper_core7storage5ports12LogbookStore20upsert_sync_metadata
FNDA:5,_RNvXs3_CsdFSXKvCgM1O_24qsoripper_storage_memoryNtB5_13MemoryStorageNtNtNtCsgPbJLsevrBc_14qsoripper_core7storage5ports12LogbookStore7get_qso
FNDA:17,_RNvXs3_CsdFSXKvCgM1O_24qsoripper_storage_memoryNtB5_13MemoryStorageNtNtNtCsgPbJLsevrBc_14qsoripper_core7storage5ports12LogbookStore9list_qsos
FNDA:0,_RNvXs4_CsdFSXKvCgM1O_24qsoripper_storage_memoryNtB5_13MemoryStorageNtNtNtCsgPbJLsevrBc_14qsoripper_core7storage5ports19LookupSnapshotStore19get_lookup_snapshot
FNDA:0,_RNvXs4_CsdFSXKvCgM1O_24qsoripper_storage_memoryNtB5_13MemoryStorageNtNtNtCsgPbJLsevrBc_14qsoripper_core7storage5ports19LookupSnapshotStore22delete_lookup_snapshot
FNDA:0,_RNvXs4_CsdFSXKvCgM1O_24qsoripper_storage_memoryNtB5_13MemoryStorageNtNtNtCsgPbJLsevrBc_14qsoripper_core7storage5ports19LookupSnapshotStore22upsert_lookup_snapshot
FNDA:36,_RNvXs_CsdFSXKvCgM1O_24qsoripper_storage_memoryNtB4_13MemoryStorageNtNtNtCsgPbJLsevrBc_14qsoripper_core7storage5ports13EngineStorage12backend_name
FNDA:0,_RNvXs_CsdFSXKvCgM1O_24qsoripper_storage_memoryNtB4_13MemoryStorageNtNtNtCsgPbJLsevrBc_14qsoripper_core7storage5ports13EngineStorage16lookup_snapshots
FNDA:45,_RNvXs_CsdFSXKvCgM1O_24qsoripper_storage_memoryNtB4_13MemoryStorageNtNtNtCsgPbJLsevrBc_14qsoripper_core7storage5ports13EngineStorage7logbook
FNDA:0,_RNCNCNCNvXs3_CsdFSXKvCgM1O_24qsoripper_storage_memoryNtBb_13MemoryStorageNtNtNtCsgPbJLsevrBc_14qsoripper_core7storage5ports12LogbookStore9list_qsos0s2_00Bb_
FNDA:3,_RNCNCNvXs3_CsdFSXKvCgM1O_24qsoripper_storage_memoryNtB9_13MemoryStorageNtNtNtCsgPbJLsevrBc_14qsoripper_core7storage5ports12LogbookStore10qso_counts00B9_
FNDA:0,_RNCNCNvXs3_CsdFSXKvCgM1O_24qsoripper_storage_memoryNtB9_13MemoryStorageNtNtNtCsgPbJLsevrBc_14qsoripper_core7storage5ports12LogbookStore10qso_counts0s0_0B9_
FNDA:0,_RNCNCNvXs3_CsdFSXKvCgM1O_24qsoripper_storage_memoryNtB9_13MemoryStorageNtNtNtCsgPbJLsevrBc_14qsoripper_core7storage5ports12LogbookStore10qso_counts0s_0B9_
FNDA:13,_RNCNCNvXs3_CsdFSXKvCgM1O_24qsoripper_storage_memoryNtB9_13MemoryStorageNtNtNtCsgPbJLsevrBc_14qsoripper_core7storage5ports12LogbookStore9list_qsos00B9_
FNDA:0,_RNCNCNvXs3_CsdFSXKvCgM1O_24qsoripper_storage_memoryNtB9_13MemoryStorageNtNtNtCsgPbJLsevrBc_14qsoripper_core7storage5ports12LogbookStore9list_qsos0s0_0B9_
FNDA:0,_RNCNCNvXs3_CsdFSXKvCgM1O_24qsoripper_storage_memoryNtB9_13MemoryStorageNtNtNtCsgPbJLsevrBc_14qsoripper_core7storage5ports12LogbookStore9list_qsos0s1_0B9_
FNDA:5,_RNCNCNvXs3_CsdFSXKvCgM1O_24qsoripper_storage_memoryNtB9_13MemoryStorageNtNtNtCsgPbJLsevrBc_14qsoripper_core7storage5ports12LogbookStore9list_qsos0s2_0B9_
FNDA:0,_RNCNCNvXs3_CsdFSXKvCgM1O_24qsoripper_storage_memoryNtB9_13MemoryStorageNtNtNtCsgPbJLsevrBc_14qsoripper_core7storage5ports12LogbookStore9list_qsos0s_0B9_
FNDA:22,_RNCNvCsdFSXKvCgM1O_24qsoripper_storage_memory19timestamp_to_millis0B3_
FNDA:4,_RNvCsaQT5tdxFSLB_24qsoripper_storage_memory13matches_query
FNDA:4,_RNvCsaQT5tdxFSLB_24qsoripper_storage_memory19timestamp_to_millis
FNDA:3,_RNvMCsaQT5tdxFSLB_24qsoripper_storage_memoryNtB2_13MemoryStorage3new
FNDA:0,_RNvXs3_CsaQT5tdxFSLB_24qsoripper_storage_memoryNtB5_13MemoryStorageNtNtNtCsgPbJLsevrBc_14qsoripper_core7storage5ports12LogbookStore10delete_qso
FNDA:3,_RNvXs3_CsaQT5tdxFSLB_24qsoripper_storage_memoryNtB5_13MemoryStorageNtNtNtCsgPbJLsevrBc_14qsoripper_core7storage5ports12LogbookStore10insert_qso
FNDA:0,_RNvXs3_CsaQT5tdxFSLB_24qsoripper_storage_memoryNtB5_13MemoryStorageNtNtNtCsgPbJLsevrBc_14qsoripper_core7storage5ports12LogbookStore10qso_counts
FNDA:0,_RNvXs3_CsaQT5tdxFSLB_24qsoripper_storage_memoryNtB5_13MemoryStorageNtNtNtCsgPbJLsevrBc_14qsoripper_core7storage5ports12LogbookStore10update_qso
FNDA:0,_RNvXs3_CsaQT5tdxFSLB_24qsoripper_storage_memoryNtB5_13MemoryStorageNtNtNtCsgPbJLsevrBc_14qsoripper_core7storage5ports12LogbookStore17get_sync_metadata
FNDA:0,_RNvXs3_CsaQT5tdxFSLB_24qsoripper_storage_memoryNtB5_13MemoryStorageNtNtNtCsgPbJLsevrBc_14qsoripper_core7storage5ports12LogbookStore20upsert_sync_metadata
FNDA:1,_RNvXs3_CsaQT5tdxFSLB_24qsoripper_storage_memoryNtB5_13MemoryStorageNtNtNtCsgPbJLsevrBc_14qsoripper_core7storage5ports12LogbookStore7get_qso
FNDA:2,_RNvXs3_CsaQT5tdxFSLB_24qsoripper_storage_memoryNtB5_13MemoryStorageNtNtNtCsgPbJLsevrBc_14qsoripper_core7storage5ports12LogbookStore9list_qsos
FNDA:1,_RNvXs4_CsaQT5tdxFSLB_24qsoripper_storage_memoryNtB5_13MemoryStorageNtNtNtCsgPbJLsevrBc_14qsoripper_core7storage5ports19LookupSnapshotStore19get_lookup_snapshot
FNDA:0,_RNvXs4_CsaQT5tdxFSLB_24qsoripper_storage_memoryNtB5_13MemoryStorageNtNtNtCsgPbJLsevrBc_14qsoripper_core7storage5ports19LookupSnapshotStore22delete_lookup_snapshot
FNDA:1,_RNvXs4_CsaQT5tdxFSLB_24qsoripper_storage_memoryNtB5_13MemoryStorageNtNtNtCsgPbJLsevrBc_14qsoripper_core7storage5ports19LookupSnapshotStore22upsert_lookup_snapshot
FNDA:0,_RNvXs_CsaQT5tdxFSLB_24qsoripper_storage_memoryNtB4_13MemoryStorageNtNtNtCsgPbJLsevrBc_14qsoripper_core7storage5ports13EngineStorage12backend_name
FNDA:0,_RNvXs_CsaQT5tdxFSLB_24qsoripper_storage_memoryNtB4_13MemoryStorageNtNtNtCsgPbJLsevrBc_14qsoripper_core7storage5ports13EngineStorage16lookup_snapshots
FNDA:6,_RNvXs_CsaQT5tdxFSLB_24qsoripper_storage_memoryNtB4_13MemoryStorageNtNtNtCsgPbJLsevrBc_14qsoripper_core7storage5ports13EngineStorage7logbook
FNDA:0,_RNCNCNCNvXs3_CsaQT5tdxFSLB_24qsoripper_storage_memoryNtBb_13MemoryStorageNtNtNtCsgPbJLsevrBc_14qsoripper_core7storage5ports12LogbookStore9list_qsos0s2_00Bb_
FNDA:0,_RNCNCNvXs3_CsaQT5tdxFSLB_24qsoripper_storage_memoryNtB9_13MemoryStorageNtNtNtCsgPbJLsevrBc_14qsoripper_core7storage5ports12LogbookStore10qso_counts00B9_
FNDA:0,_RNCNCNvXs3_CsaQT5tdxFSLB_24qsoripper_storage_memoryNtB9_13MemoryStorageNtNtNtCsgPbJLsevrBc_14qsoripper_core7storage5ports12LogbookStore10qso_counts0s0_0B9_
FNDA:0,_RNCNCNvXs3_CsaQT5tdxFSLB_24qsoripper_storage_memoryNtB9_13MemoryStorageNtNtNtCsgPbJLsevrBc_14qsoripper_core7storage5ports12LogbookStore10qso_counts0s_0B9_
FNDA:4,_RNCNCNvXs3_CsaQT5tdxFSLB_24qsoripper_storage_memoryNtB9_13MemoryStorageNtNtNtCsgPbJLsevrBc_14qsoripper_core7storage5ports12LogbookStore9list_qsos00B9_
FNDA:0,_RNCNCNvXs3_CsaQT5tdxFSLB_24qsoripper_storage_memoryNtB9_13MemoryStorageNtNtNtCsgPbJLsevrBc_14qsoripper_core7storage5ports12LogbookStore9list_qsos0s0_0B9_
FNDA:0,_RNCNCNvXs3_CsaQT5tdxFSLB_24qsoripper_storage_memoryNtB9_13MemoryStorageNtNtNtCsgPbJLsevrBc_14qsoripper_core7storage5ports12LogbookStore9list_qsos0s1_0B9_
FNDA:1,_RNCNCNvXs3_CsaQT5tdxFSLB_24qsoripper_storage_memoryNtB9_13MemoryStorageNtNtNtCsgPbJLsevrBc_14qsoripper_core7storage5ports12LogbookStore9list_qsos0s2_0B9_
FNDA:2,_RNCNCNvXs3_CsaQT5tdxFSLB_24qsoripper_storage_memoryNtB9_13MemoryStorageNtNtNtCsgPbJLsevrBc_14qsoripper_core7storage5ports12LogbookStore9list_qsos0s_0B9_
FNDA:4,_RNCNvCsaQT5tdxFSLB_24qsoripper_storage_memory19timestamp_to_millis0B3_
FNDA:1,_RNCNCNvNtCsaQT5tdxFSLB_24qsoripper_storage_memory5testss_50memory_storage_lists_qsos_with_filters_and_sorting00B7_
FNDA:1,_RNCNCNvNtCsaQT5tdxFSLB_24qsoripper_storage_memory5testss_50memory_storage_lists_qsos_with_filters_and_sorting0s_0B7_
FNDA:1,_RNCNvNtCsaQT5tdxFSLB_24qsoripper_storage_memory5testss_40memory_storage_persists_lookup_snapshots0B5_
FNDA:1,_RNCNvNtCsaQT5tdxFSLB_24qsoripper_storage_memory5testss_50memory_storage_lists_qsos_with_filters_and_sorting0B5_
FNDA:1,_RNCNvNtCsaQT5tdxFSLB_24qsoripper_storage_memory5testss_54memory_storage_round_trips_qsos_through_logbook_engine0B5_
FNDA:1,_RNvNtCsaQT5tdxFSLB_24qsoripper_storage_memory5testss_40memory_storage_persists_lookup_snapshots
FNDA:1,_RNvNtCsaQT5tdxFSLB_24qsoripper_storage_memory5testss_47timestamp_to_millis_saturates_negative_overflow
FNDA:1,_RNvNtCsaQT5tdxFSLB_24qsoripper_storage_memory5testss_47timestamp_to_millis_saturates_positive_overflow
FNDA:1,_RNvNtCsaQT5tdxFSLB_24qsoripper_storage_memory5testss_50memory_storage_lists_qsos_with_filters_and_sorting
FNDA:1,_RNvNtCsaQT5tdxFSLB_24qsoripper_storage_memory5testss_54memory_storage_round_trips_qsos_through_logbook_engine
FNF:37
FNH:29
DA:30,39
DA:31,39
DA:32,39
DA:36,51
DA:37,51
DA:38,51
DA:40,0
DA:41,0
DA:42,0
DA:44,36
DA:45,36
DA:46,36
DA:51,14
DA:59,14
DA:61,4
DA:69,4
DA:71,2
DA:74,2
DA:76,6
DA:79,6
DA:81,19
DA:86,17
DA:90,19
DA:92,2
DA:93,2
DA:94,2
DA:95,2
DA:96,2
DA:97,2
DA:100,0
DA:101,0
DA:102,0
DA:103,0
DA:104,0
DA:105,0
DA:110,0
DA:113,6
DA:114,6
DA:115,6
DA:116,6
DA:127,19
DA:129,3
DA:134,3
DA:139,0
DA:141,0
DA:143,3
DA:145,3
DA:148,3
DA:150,0
DA:154,0
DA:162,1
DA:168,1
DA:170,1
DA:177,1
DA:179,0
DA:185,0
DA:188,17
DA:189,17
DA:190,6
DA:191,1
DA:192,5
DA:193,11
DA:195,16
DA:196,5
DA:197,0
DA:198,5
DA:199,11
DA:201,16
DA:202,8
DA:203,8
DA:204,8
DA:205,8
DA:206,8
DA:207,8
DA:208,8
DA:209,8
DA:210,8
DA:211,8
DA:213,0
DA:214,8
DA:215,8
DA:217,16
DA:218,0
DA:219,0
DA:220,0
DA:221,16
DA:223,16
DA:224,0
DA:225,0
DA:226,0
DA:227,16
DA:229,16
DA:230,4
DA:231,2
DA:232,2
DA:233,12
DA:235,14
DA:236,17
DA:238,26
DA:239,26
DA:240,26
DA:241,26
DA:242,26
DA:243,26
DA:244,26
DA:245,26
DA:261,1
DA:262,1
DA:263,1
DA:264,1
DA:265,1
DA:266,1
DA:267,1
DA:268,1
DA:269,1
DA:270,1
DA:271,1
DA:273,1
DA:274,1
DA:276,1
DA:277,1
DA:278,1
DA:279,1
DA:280,1
DA:283,1
DA:284,1
DA:285,1
DA:287,1
DA:288,1
DA:289,1
DA:290,1
DA:291,1
DA:292,1
DA:293,1
DA:294,1
DA:295,1
DA:296,1
DA:297,1
DA:298,1
DA:299,1
DA:300,1
DA:301,1
DA:302,1
DA:303,1
DA:305,1
DA:306,1
DA:308,1
DA:309,1
DA:310,1
DA:311,1
DA:312,1
DA:313,1
DA:314,1
DA:315,1
DA:316,1
DA:318,1
DA:319,1
DA:320,1
DA:321,1
DA:322,1
DA:326,1
DA:327,1
DA:328,1
DA:329,1
DA:330,1
DA:331,1
DA:332,1
DA:334,1
DA:335,1
DA:336,1
DA:337,1
DA:338,1
DA:339,1
DA:340,1
DA:341,1
DA:344,1
DA:345,1
DA:346,1
DA:347,1
DA:348,1
DA:349,1
DA:350,1
DA:351,1
DA:352,1
DA:353,1
DA:354,1
DA:355,1
DA:356,1
DA:357,1
DA:358,1
DA:360,1
DA:361,1
DA:363,1
DA:364,0
DA:367,1
DA:368,1
DA:369,1
DA:372,1
DA:373,1
DA:374,1
DA:375,1
DA:376,1
DA:378,1
DA:379,1
DA:382,1
DA:383,1
DA:384,1
DA:385,1
DA:386,1
DA:388,1
DA:389,1
BRF:0
BRH:0
LF:224
LH:198
end_of_record
SF:C:\Users\randy\Git\qsoripper-adif-refresh\src\rust\qsoripper-storage-sqlite\src\builder.rs
FN:37,_RINvMs_NtCs3yFwPKqX78L_24qsoripper_storage_sqlite7builderNtB5_20SqliteStorageBuilder4pathNtNtCsja4ZeDc2XAj_3std4path7PathBufECsujLUsjorcV_16qsoripper_server
FN:51,_RNvMs_NtCs3yFwPKqX78L_24qsoripper_storage_sqlite7builderNtB4_20SqliteStorageBuilder12busy_timeout
FN:31,_RNvMs_NtCs3yFwPKqX78L_24qsoripper_storage_sqlite7builderNtB4_20SqliteStorageBuilder3new
FN:62,_RNvMs_NtCs3yFwPKqX78L_24qsoripper_storage_sqlite7builderNtB4_20SqliteStorageBuilder5build
FN:44,_RNvMs_NtCs3yFwPKqX78L_24qsoripper_storage_sqlite7builderNtB4_20SqliteStorageBuilder9in_memory
FN:103,_RNvNtCs3yFwPKqX78L_24qsoripper_storage_sqlite7builder16map_sqlite_error
FN:93,_RNvNtCs3yFwPKqX78L_24qsoripper_storage_sqlite7builder23ensure_parent_directory
FN:20,_RNvXNtCs3yFwPKqX78L_24qsoripper_storage_sqlite7builderNtB2_20SqliteStorageBuilderNtNtCs5cb5cxfFw7H_4core7default7Default7default
FN:37,_RINvMs_NtCs3yFwPKqX78L_24qsoripper_storage_sqlite7builderNtB5_20SqliteStorageBuilder4pathpEB7_
FN:96,_RNCNvNtCs3yFwPKqX78L_24qsoripper_storage_sqlite7builder23ensure_parent_directory0B5_
FN:96,_RNCNvNtCslOMEjNOpVly_24qsoripper_storage_sqlite7builder23ensure_parent_directory0B5_
FN:37,_RINvMs_NtCslOMEjNOpVly_24qsoripper_storage_sqlite7builderNtB5_20SqliteStorageBuilder4pathpEB7_
FN:51,_RNvMs_NtCslOMEjNOpVly_24qsoripper_storage_sqlite7builderNtB4_20SqliteStorageBuilder12busy_timeout
FN:31,_RNvMs_NtCslOMEjNOpVly_24qsoripper_storage_sqlite7builderNtB4_20SqliteStorageBuilder3new
FN:62,_RNvMs_NtCslOMEjNOpVly_24qsoripper_storage_sqlite7builderNtB4_20SqliteStorageBuilder5build
FN:44,_RNvMs_NtCslOMEjNOpVly_24qsoripper_storage_sqlite7builderNtB4_20SqliteStorageBuilder9in_memory
FN:103,_RNvNtCslOMEjNOpVly_24qsoripper_storage_sqlite7builder16map_sqlite_error
FN:93,_RNvNtCslOMEjNOpVly_24qsoripper_storage_sqlite7builder23ensure_parent_directory
FN:20,_RNvXNtCslOMEjNOpVly_24qsoripper_storage_sqlite7builderNtB2_20SqliteStorageBuilderNtNtCs5cb5cxfFw7H_4core7default7Default7default
FNDA:19,_RINvMs_NtCs3yFwPKqX78L_24qsoripper_storage_sqlite7builderNtB5_20SqliteStorageBuilder4pathNtNtCsja4ZeDc2XAj_3std4path7PathBufECsujLUsjorcV_16qsoripper_server
FNDA:0,_RNvMs_NtCs3yFwPKqX78L_24qsoripper_storage_sqlite7builderNtB4_20SqliteStorageBuilder12busy_timeout
FNDA:19,_RNvMs_NtCs3yFwPKqX78L_24qsoripper_storage_sqlite7builderNtB4_20SqliteStorageBuilder3new
FNDA:19,_RNvMs_NtCs3yFwPKqX78L_24qsoripper_storage_sqlite7builderNtB4_20SqliteStorageBuilder5build
FNDA:0,_RNvMs_NtCs3yFwPKqX78L_24qsoripper_storage_sqlite7builderNtB4_20SqliteStorageBuilder9in_memory
FNDA:0,_RNvNtCs3yFwPKqX78L_24qsoripper_storage_sqlite7builder16map_sqlite_error
FNDA:19,_RNvNtCs3yFwPKqX78L_24qsoripper_storage_sqlite7builder23ensure_parent_directory
FNDA:19,_RNvXNtCs3yFwPKqX78L_24qsoripper_storage_sqlite7builderNtB2_20SqliteStorageBuilderNtNtCs5cb5cxfFw7H_4core7default7Default7default
FNDA:0,_RINvMs_NtCs3yFwPKqX78L_24qsoripper_storage_sqlite7builderNtB5_20SqliteStorageBuilder4pathpEB7_
FNDA:0,_RNCNvNtCs3yFwPKqX78L_24qsoripper_storage_sqlite7builder23ensure_parent_directory0B5_
FNDA:0,_RNCNvNtCslOMEjNOpVly_24qsoripper_storage_sqlite7builder23ensure_parent_directory0B5_
FNDA:0,_RINvMs_NtCslOMEjNOpVly_24qsoripper_storage_sqlite7builderNtB5_20SqliteStorageBuilder4pathpEB7_
FNDA:0,_RNvMs_NtCslOMEjNOpVly_24qsoripper_storage_sqlite7builderNtB4_20SqliteStorageBuilder12busy_timeout
FNDA:3,_RNvMs_NtCslOMEjNOpVly_24qsoripper_storage_sqlite7builderNtB4_20SqliteStorageBuilder3new
FNDA:3,_RNvMs_NtCslOMEjNOpVly_24qsoripper_storage_sqlite7builderNtB4_20SqliteStorageBuilder5build
FNDA:3,_RNvMs_NtCslOMEjNOpVly_24qsoripper_storage_sqlite7builderNtB4_20SqliteStorageBuilder9in_memory
FNDA:0,_RNvNtCslOMEjNOpVly_24qsoripper_storage_sqlite7builder16map_sqlite_error
FNDA:0,_RNvNtCslOMEjNOpVly_24qsoripper_storage_sqlite7builder23ensure_parent_directory
FNDA:3,_RNvXNtCslOMEjNOpVly_24qsoripper_storage_sqlite7builderNtB2_20SqliteStorageBuilderNtNtCs5cb5cxfFw7H_4core7default7Default7default
FNF:9
FNH:6
DA:20,22
DA:21,22
DA:22,22
DA:23,22
DA:24,22
DA:25,22
DA:31,22
DA:32,22
DA:33,22
DA:37,19
DA:38,19
DA:39,19
DA:40,19
DA:44,3
DA:45,3
DA:46,3
DA:47,3
DA:51,0
DA:52,0
DA:53,0
DA:54,0
DA:62,22
DA:63,22
DA:64,19
DA:65,19
DA:66,19
DA:68,3
DA:71,22
DA:72,22
DA:73,22
DA:74,22
DA:75,22
DA:76,22
DA:77,22
DA:78,22
DA:79,19
DA:80,19
DA:81,19
DA:82,3
DA:83,22
DA:84,22
DA:85,22
DA:87,22
DA:88,22
DA:89,22
DA:90,22
DA:93,19
DA:94,19
DA:95,19
DA:96,19
DA:97,0
DA:98,0
DA:100,19
DA:101,19
DA:103,0
DA:104,0
DA:105,0
DA:106,0
DA:107,0
DA:108,0
DA:111,0
DA:112,0
BRF:0
BRH:0
LF:63
LH:46
end_of_record
SF:C:\Users\randy\Git\qsoripper-adif-refresh\src\rust\qsoripper-storage-sqlite\src\lib.rs
FN:384,_RNvCs3yFwPKqX78L_24qsoripper_storage_sqlite10decode_qso
FN:427,_RNvCs3yFwPKqX78L_24qsoripper_storage_sqlite16map_insert_error
FN:438,_RNvCs3yFwPKqX78L_24qsoripper_storage_sqlite16map_sqlite_error
FN:401,_RNvCs3yFwPKqX78L_24qsoripper_storage_sqlite17execute_statement
FN:388,_RNvCs3yFwPKqX78L_24qsoripper_storage_sqlite17prepare_statement
FN:458,_RNvCs3yFwPKqX78L_24qsoripper_storage_sqlite19millis_to_timestamp
FN:449,_RNvCs3yFwPKqX78L_24qsoripper_storage_sqlite19timestamp_to_millis
FN:24,_RNvMCs3yFwPKqX78L_24qsoripper_storage_sqliteNtB2_13SqliteStorage10connection
FN:128,_RNvXs0_Cs3yFwPKqX78L_24qsoripper_storage_sqliteNtB5_13SqliteStorageNtNtNtCsgPbJLsevrBc_14qsoripper_core7storage5ports12LogbookStore10delete_qso
FN:47,_RNvXs0_Cs3yFwPKqX78L_24qsoripper_storage_sqliteNtB5_13SqliteStorageNtNtNtCsgPbJLsevrBc_14qsoripper_core7storage5ports12LogbookStore10insert_qso
FN:225,_RNvXs0_Cs3yFwPKqX78L_24qsoripper_storage_sqliteNtB5_13SqliteStorageNtNtNtCsgPbJLsevrBc_14qsoripper_core7storage5ports12LogbookStore10qso_counts
FN:88,_RNvXs0_Cs3yFwPKqX78L_24qsoripper_storage_sqliteNtB5_13SqliteStorageNtNtNtCsgPbJLsevrBc_14qsoripper_core7storage5ports12LogbookStore10update_qso
FN:248,_RNvXs0_Cs3yFwPKqX78L_24qsoripper_storage_sqliteNtB5_13SqliteStorageNtNtNtCsgPbJLsevrBc_14qsoripper_core7storage5ports12LogbookStore17get_sync_metadata
FN:278,_RNvXs0_Cs3yFwPKqX78L_24qsoripper_storage_sqliteNtB5_13SqliteStorageNtNtNtCsgPbJLsevrBc_14qsoripper_core7storage5ports12LogbookStore20upsert_sync_metadata
FN:140,_RNvXs0_Cs3yFwPKqX78L_24qsoripper_storage_sqliteNtB5_13SqliteStorageNtNtNtCsgPbJLsevrBc_14qsoripper_core7storage5ports12LogbookStore7get_qso
FN:153,_RNvXs0_Cs3yFwPKqX78L_24qsoripper_storage_sqliteNtB5_13SqliteStorageNtNtNtCsgPbJLsevrBc_14qsoripper_core7storage5ports12LogbookStore9list_qsos
FN:305,_RNvXs1_Cs3yFwPKqX78L_24qsoripper_storage_sqliteNtB5_13SqliteStorageNtNtNtCsgPbJLsevrBc_14qsoripper_core7storage5ports19LookupSnapshotStore19get_lookup_snapshot
FN:367,_RNvXs1_Cs3yFwPKqX78L_24qsoripper_storage_sqliteNtB5_13SqliteStorageNtNtNtCsgPbJLsevrBc_14qsoripper_core7storage5ports19LookupSnapshotStore22delete_lookup_snapshot
FN:342,_RNvXs1_Cs3yFwPKqX78L_24qsoripper_storage_sqliteNtB5_13SqliteStorageNtNtNtCsgPbJLsevrBc_14qsoripper_core7storage5ports19LookupSnapshotStore22upsert_lookup_snapshot
FN:40,_RNvXs_Cs3yFwPKqX78L_24qsoripper_storage_sqliteNtB4_13SqliteStorageNtNtNtCsgPbJLsevrBc_14qsoripper_core7storage5ports13EngineStorage12backend_name
FN:36,_RNvXs_Cs3yFwPKqX78L_24qsoripper_storage_sqliteNtB4_13SqliteStorageNtNtNtCsgPbJLsevrBc_14qsoripper_core7storage5ports13EngineStorage16lookup_snapshots
FN:32,_RNvXs_Cs3yFwPKqX78L_24qsoripper_storage_sqliteNtB4_13SqliteStorageNtNtNtCsgPbJLsevrBc_14qsoripper_core7storage5ports13EngineStorage7logbook
FN:380,_RINvCs3yFwPKqX78L_24qsoripper_storage_sqlite14encode_messageNtNtNtNtCsgPbJLsevrBc_14qsoripper_core5proto9qsoripper6domain12LookupResultEB2_
FN:380,_RINvCs3yFwPKqX78L_24qsoripper_storage_sqlite14encode_messageNtNtNtNtCsgPbJLsevrBc_14qsoripper_core5proto9qsoripper6domain9QsoRecordEB2_
FN:411,_RINvCs3yFwPKqX78L_24qsoripper_storage_sqlite14query_optionalINtNtCs2ocB3yIIgEv_5alloc3vec3VechEEB2_
FN:411,_RINvCs3yFwPKqX78L_24qsoripper_storage_sqlite14query_optionalxEB2_
FN:83,_RNCNCNvXs0_Cs3yFwPKqX78L_24qsoripper_storage_sqliteNtB9_13SqliteStorageNtNtNtCsgPbJLsevrBc_14qsoripper_core7storage5ports12LogbookStore10insert_qso00B9_
FN:242,_RNCNCNvXs0_Cs3yFwPKqX78L_24qsoripper_storage_sqliteNtB9_13SqliteStorageNtNtNtCsgPbJLsevrBc_14qsoripper_core7storage5ports12LogbookStore10qso_counts00B9_
FN:244,_RNCNCNvXs0_Cs3yFwPKqX78L_24qsoripper_storage_sqliteNtB9_13SqliteStorageNtNtNtCsgPbJLsevrBc_14qsoripper_core7storage5ports12LogbookStore10qso_counts0s_0B9_
FN:264,_RNCNCNvXs0_Cs3yFwPKqX78L_24qsoripper_storage_sqliteNtB9_13SqliteStorageNtNtNtCsgPbJLsevrBc_14qsoripper_core7storage5ports12LogbookStore17get_sync_metadata00B9_
FN:150,_RNCNCNvXs0_Cs3yFwPKqX78L_24qsoripper_storage_sqliteNtB9_13SqliteStorageNtNtNtCsgPbJLsevrBc_14qsoripper_core7storage5ports12LogbookStore7get_qso00B9_
FN:221,_RNCNCNvXs0_Cs3yFwPKqX78L_24qsoripper_storage_sqliteNtB9_13SqliteStorageNtNtNtCsgPbJLsevrBc_14qsoripper_core7storage5ports12LogbookStore9list_qsos00B9_
FN:320,_RNCNCNvXs1_Cs3yFwPKqX78L_24qsoripper_storage_sqliteNtB9_13SqliteStorageNtNtNtCsgPbJLsevrBc_14qsoripper_core7storage5ports19LookupSnapshotStore19get_lookup_snapshot00B9_
FN:385,_RNCNvCs3yFwPKqX78L_24qsoripper_storage_sqlite10decode_qso0B3_
FN:460,_RNCNvCs3yFwPKqX78L_24qsoripper_storage_sqlite19millis_to_timestamp0B3_
FN:450,_RNCNvCs3yFwPKqX78L_24qsoripper_storage_sqlite19timestamp_to_millis0B3_
FN:27,_RNCNvMCs3yFwPKqX78L_24qsoripper_storage_sqliteNtB4_13SqliteStorage10connection0B4_
FN:502,_RNvNtCslOMEjNOpVly_24qsoripper_storage_sqlite5testss_38sqlite_storage_lists_qsos_with_filters
FN:544,_RNvNtCslOMEjNOpVly_24qsoripper_storage_sqlite5testss_40sqlite_storage_persists_lookup_snapshots
FN:582,_RNvNtCslOMEjNOpVly_24qsoripper_storage_sqlite5testss_47timestamp_to_millis_saturates_negative_overflow
FN:572,_RNvNtCslOMEjNOpVly_24qsoripper_storage_sqlite5testss_47timestamp_to_millis_saturates_positive_overflow
FN:479,_RNvNtCslOMEjNOpVly_24qsoripper_storage_sqlite5testss_54sqlite_storage_round_trips_qsos_through_logbook_engine
FN:538,_RNCNCNvNtCslOMEjNOpVly_24qsoripper_storage_sqlite5testss_38sqlite_storage_lists_qsos_with_filters00B7_
FN:502,_RNCNvNtCslOMEjNOpVly_24qsoripper_storage_sqlite5testss_38sqlite_storage_lists_qsos_with_filters0B5_
FN:544,_RNCNvNtCslOMEjNOpVly_24qsoripper_storage_sqlite5testss_40sqlite_storage_persists_lookup_snapshots0B5_
FN:479,_RNCNvNtCslOMEjNOpVly_24qsoripper_storage_sqlite5testss_54sqlite_storage_round_trips_qsos_through_logbook_engine0B5_
FN:380,_RINvCslOMEjNOpVly_24qsoripper_storage_sqlite14encode_messageNtNtNtNtCsgPbJLsevrBc_14qsoripper_core5proto9qsoripper6domain12LookupResultEB2_
FN:380,_RINvCslOMEjNOpVly_24qsoripper_storage_sqlite14encode_messageNtNtNtNtCsgPbJLsevrBc_14qsoripper_core5proto9qsoripper6domain9QsoRecordEB2_
FN:411,_RINvCslOMEjNOpVly_24qsoripper_storage_sqlite14query_optionalINtNtCs2ocB3yIIgEv_5alloc3vec3VechEEB2_
FN:411,_RINvCslOMEjNOpVly_24qsoripper_storage_sqlite14query_optionalxEB2_
FN:83,_RNCNCNvXs0_CslOMEjNOpVly_24qsoripper_storage_sqliteNtB9_13SqliteStorageNtNtNtCsgPbJLsevrBc_14qsoripper_core7storage5ports12LogbookStore10insert_qso00B9_
FN:242,_RNCNCNvXs0_CslOMEjNOpVly_24qsoripper_storage_sqliteNtB9_13SqliteStorageNtNtNtCsgPbJLsevrBc_14qsoripper_core7storage5ports12LogbookStore10qso_counts00B9_
FN:244,_RNCNCNvXs0_CslOMEjNOpVly_24qsoripper_storage_sqliteNtB9_13SqliteStorageNtNtNtCsgPbJLsevrBc_14qsoripper_core7storage5ports12LogbookStore10qso_counts0s_0B9_
FN:264,_RNCNCNvXs0_CslOMEjNOpVly_24qsoripper_storage_sqliteNtB9_13SqliteStorageNtNtNtCsgPbJLsevrBc_14qsoripper_core7storage5ports12LogbookStore17get_sync_metadata00B9_
FN:150,_RNCNCNvXs0_CslOMEjNOpVly_24qsoripper_storage_sqliteNtB9_13SqliteStorageNtNtNtCsgPbJLsevrBc_14qsoripper_core7storage5ports12LogbookStore7get_qso00B9_
FN:221,_RNCNCNvXs0_CslOMEjNOpVly_24qsoripper_storage_sqliteNtB9_13SqliteStorageNtNtNtCsgPbJLsevrBc_14qsoripper_core7storage5ports12LogbookStore9list_qsos00B9_
FN:320,_RNCNCNvXs1_CslOMEjNOpVly_24qsoripper_storage_sqliteNtB9_13SqliteStorageNtNtNtCsgPbJLsevrBc_14qsoripper_core7storage5ports19LookupSnapshotStore19get_lookup_snapshot00B9_
FN:385,_RNCNvCslOMEjNOpVly_24qsoripper_storage_sqlite10decode_qso0B3_
FN:460,_RNCNvCslOMEjNOpVly_24qsoripper_storage_sqlite19millis_to_timestamp0B3_
FN:450,_RNCNvCslOMEjNOpVly_24qsoripper_storage_sqlite19timestamp_to_millis0B3_
FN:27,_RNCNvMCslOMEjNOpVly_24qsoripper_storage_sqliteNtB4_13SqliteStorage10connection0B4_
FN:384,_RNvCslOMEjNOpVly_24qsoripper_storage_sqlite10decode_qso
FN:427,_RNvCslOMEjNOpVly_24qsoripper_storage_sqlite16map_insert_error
FN:438,_RNvCslOMEjNOpVly_24qsoripper_storage_sqlite16map_sqlite_error
FN:401,_RNvCslOMEjNOpVly_24qsoripper_storage_sqlite17execute_statement
FN:388,_RNvCslOMEjNOpVly_24qsoripper_storage_sqlite17prepare_statement
FN:458,_RNvCslOMEjNOpVly_24qsoripper_storage_sqlite19millis_to_timestamp
FN:449,_RNvCslOMEjNOpVly_24qsoripper_storage_sqlite19timestamp_to_millis
FN:24,_RNvMCslOMEjNOpVly_24qsoripper_storage_sqliteNtB2_13SqliteStorage10connection
FN:128,_RNvXs0_CslOMEjNOpVly_24qsoripper_storage_sqliteNtB5_13SqliteStorageNtNtNtCsgPbJLsevrBc_14qsoripper_core7storage5ports12LogbookStore10delete_qso
FN:47,_RNvXs0_CslOMEjNOpVly_24qsoripper_storage_sqliteNtB5_13SqliteStorageNtNtNtCsgPbJLsevrBc_14qsoripper_core7storage5ports12LogbookStore10insert_qso
FN:225,_RNvXs0_CslOMEjNOpVly_24qsoripper_storage_sqliteNtB5_13SqliteStorageNtNtNtCsgPbJLsevrBc_14qsoripper_core7storage5ports12LogbookStore10qso_counts
FN:88,_RNvXs0_CslOMEjNOpVly_24qsoripper_storage_sqliteNtB5_13SqliteStorageNtNtNtCsgPbJLsevrBc_14qsoripper_core7storage5ports12LogbookStore10update_qso
FN:248,_RNvXs0_CslOMEjNOpVly_24qsoripper_storage_sqliteNtB5_13SqliteStorageNtNtNtCsgPbJLsevrBc_14qsoripper_core7storage5ports12LogbookStore17get_sync_metadata
FN:278,_RNvXs0_CslOMEjNOpVly_24qsoripper_storage_sqliteNtB5_13SqliteStorageNtNtNtCsgPbJLsevrBc_14qsoripper_core7storage5ports12LogbookStore20upsert_sync_metadata
FN:140,_RNvXs0_CslOMEjNOpVly_24qsoripper_storage_sqliteNtB5_13SqliteStorageNtNtNtCsgPbJLsevrBc_14qsoripper_core7storage5ports12LogbookStore7get_qso
FN:153,_RNvXs0_CslOMEjNOpVly_24qsoripper_storage_sqliteNtB5_13SqliteStorageNtNtNtCsgPbJLsevrBc_14qsoripper_core7storage5ports12LogbookStore9list_qsos
FN:305,_RNvXs1_CslOMEjNOpVly_24qsoripper_storage_sqliteNtB5_13SqliteStorageNtNtNtCsgPbJLsevrBc_14qsoripper_core7storage5ports19LookupSnapshotStore19get_lookup_snapshot
FN:367,_RNvXs1_CslOMEjNOpVly_24qsoripper_storage_sqliteNtB5_13SqliteStorageNtNtNtCsgPbJLsevrBc_14qsoripper_core7storage5ports19LookupSnapshotStore22delete_lookup_snapshot
FN:342,_RNvXs1_CslOMEjNOpVly_24qsoripper_storage_sqliteNtB5_13SqliteStorageNtNtNtCsgPbJLsevrBc_14qsoripper_core7storage5ports19LookupSnapshotStore22upsert_lookup_snapshot
FN:40,_RNvXs_CslOMEjNOpVly_24qsoripper_storage_sqliteNtB4_13SqliteStorageNtNtNtCsgPbJLsevrBc_14qsoripper_core7storage5ports13EngineStorage12backend_name
FN:36,_RNvXs_CslOMEjNOpVly_24qsoripper_storage_sqliteNtB4_13SqliteStorageNtNtNtCsgPbJLsevrBc_14qsoripper_core7storage5ports13EngineStorage16lookup_snapshots
FN:32,_RNvXs_CslOMEjNOpVly_24qsoripper_storage_sqliteNtB4_13SqliteStorageNtNtNtCsgPbJLsevrBc_14qsoripper_core7storage5ports13EngineStorage7logbook
FNDA:4,_RNvCs3yFwPKqX78L_24qsoripper_storage_sqlite10decode_qso
FNDA:0,_RNvCs3yFwPKqX78L_24qsoripper_storage_sqlite16map_insert_error
FNDA:0,_RNvCs3yFwPKqX78L_24qsoripper_storage_sqlite16map_sqlite_error
FNDA:4,_RNvCs3yFwPKqX78L_24qsoripper_storage_sqlite17execute_statement
FNDA:12,_RNvCs3yFwPKqX78L_24qsoripper_storage_sqlite17prepare_statement
FNDA:1,_RNvCs3yFwPKqX78L_24qsoripper_storage_sqlite19millis_to_timestamp
FNDA:9,_RNvCs3yFwPKqX78L_24qsoripper_storage_sqlite19timestamp_to_millis
FNDA:11,_RNvMCs3yFwPKqX78L_24qsoripper_storage_sqliteNtB2_13SqliteStorage10connection
FNDA:1,_RNvXs0_Cs3yFwPKqX78L_24qsoripper_storage_sqliteNtB5_13SqliteStorageNtNtNtCsgPbJLsevrBc_14qsoripper_core7storage5ports12LogbookStore10delete_qso
FNDA:2,_RNvXs0_Cs3yFwPKqX78L_24qsoripper_storage_sqliteNtB5_13SqliteStorageNtNtNtCsgPbJLsevrBc_14qsoripper_core7storage5ports12LogbookStore10insert_qso
FNDA:1,_RNvXs0_Cs3yFwPKqX78L_24qsoripper_storage_sqliteNtB5_13SqliteStorageNtNtNtCsgPbJLsevrBc_14qsoripper_core7storage5ports12LogbookStore10qso_counts
FNDA:1,_RNvXs0_Cs3yFwPKqX78L_24qsoripper_storage_sqliteNtB5_13SqliteStorageNtNtNtCsgPbJLsevrBc_14qsoripper_core7storage5ports12LogbookStore10update_qso
FNDA:1,_RNvXs0_Cs3yFwPKqX78L_24qsoripper_storage_sqliteNtB5_13SqliteStorageNtNtNtCsgPbJLsevrBc_14qsoripper_core7storage5ports12LogbookStore17get_sync_metadata
FNDA:0,_RNvXs0_Cs3yFwPKqX78L_24qsoripper_storage_sqliteNtB5_13SqliteStorageNtNtNtCsgPbJLsevrBc_14qsoripper_core7storage5ports12LogbookStore20upsert_sync_metadata
FNDA:4,_RNvXs0_Cs3yFwPKqX78L_24qsoripper_storage_sqliteNtB5_13SqliteStorageNtNtNtCsgPbJLsevrBc_14qsoripper_core7storage5ports12LogbookStore7get_qso
FNDA:1,_RNvXs0_Cs3yFwPKqX78L_24qsoripper_storage_sqliteNtB5_13SqliteStorageNtNtNtCsgPbJLsevrBc_14qsoripper_core7storage5ports12LogbookStore9list_qsos
FNDA:0,_RNvXs1_Cs3yFwPKqX78L_24qsoripper_storage_sqliteNtB5_13SqliteStorageNtNtNtCsgPbJLsevrBc_14qsoripper_core7storage5ports19LookupSnapshotStore19get_lookup_snapshot
FNDA:0,_RNvXs1_Cs3yFwPKqX78L_24qsoripper_storage_sqliteNtB5_13SqliteStorageNtNtNtCsgPbJLsevrBc_14qsoripper_core7storage5ports19LookupSnapshotStore22delete_lookup_snapshot
FNDA:0,_RNvXs1_Cs3yFwPKqX78L_24qsoripper_storage_sqliteNtB5_13SqliteStorageNtNtNtCsgPbJLsevrBc_14qsoripper_core7storage5ports19LookupSnapshotStore22upsert_lookup_snapshot
FNDA:19,_RNvXs_Cs3yFwPKqX78L_24qsoripper_storage_sqliteNtB4_13SqliteStorageNtNtNtCsgPbJLsevrBc_14qsoripper_core7storage5ports13EngineStorage12backend_name
FNDA:0,_RNvXs_Cs3yFwPKqX78L_24qsoripper_storage_sqliteNtB4_13SqliteStorageNtNtNtCsgPbJLsevrBc_14qsoripper_core7storage5ports13EngineStorage16lookup_snapshots
FNDA:11,_RNvXs_Cs3yFwPKqX78L_24qsoripper_storage_sqliteNtB4_13SqliteStorageNtNtNtCsgPbJLsevrBc_14qsoripper_core7storage5ports13EngineStorage7logbook
FNDA:0,_RINvCs3yFwPKqX78L_24qsoripper_storage_sqlite14encode_messageNtNtNtNtCsgPbJLsevrBc_14qsoripper_core5proto9qsoripper6domain12LookupResultEB2_
FNDA:3,_RINvCs3yFwPKqX78L_24qsoripper_storage_sqlite14encode_messageNtNtNtNtCsgPbJLsevrBc_14qsoripper_core5proto9qsoripper6domain9QsoRecordEB2_
FNDA:4,_RINvCs3yFwPKqX78L_24qsoripper_storage_sqlite14query_optionalINtNtCs2ocB3yIIgEv_5alloc3vec3VechEEB2_
FNDA:2,_RINvCs3yFwPKqX78L_24qsoripper_storage_sqlite14query_optionalxEB2_
FNDA:0,_RNCNCNvXs0_Cs3yFwPKqX78L_24qsoripper_storage_sqliteNtB9_13SqliteStorageNtNtNtCsgPbJLsevrBc_14qsoripper_core7storage5ports12LogbookStore10insert_qso00B9_
FNDA:0,_RNCNCNvXs0_Cs3yFwPKqX78L_24qsoripper_storage_sqliteNtB9_13SqliteStorageNtNtNtCsgPbJLsevrBc_14qsoripper_core7storage5ports12LogbookStore10qso_counts00B9_
FNDA:0,_RNCNCNvXs0_Cs3yFwPKqX78L_24qsoripper_storage_sqliteNtB9_13SqliteStorageNtNtNtCsgPbJLsevrBc_14qsoripper_core7storage5ports12LogbookStore10qso_counts0s_0B9_
FNDA:0,_RNCNCNvXs0_Cs3yFwPKqX78L_24qsoripper_storage_sqliteNtB9_13SqliteStorageNtNtNtCsgPbJLsevrBc_14qsoripper_core7storage5ports12LogbookStore17get_sync_metadata00B9_
FNDA:3,_RNCNCNvXs0_Cs3yFwPKqX78L_24qsoripper_storage_sqliteNtB9_13SqliteStorageNtNtNtCsgPbJLsevrBc_14qsoripper_core7storage5ports12LogbookStore7get_qso00B9_
FNDA:1,_RNCNCNvXs0_Cs3yFwPKqX78L_24qsoripper_storage_sqliteNtB9_13SqliteStorageNtNtNtCsgPbJLsevrBc_14qsoripper_core7storage5ports12LogbookStore9list_qsos00B9_
FNDA:0,_RNCNCNvXs1_Cs3yFwPKqX78L_24qsoripper_storage_sqliteNtB9_13SqliteStorageNtNtNtCsgPbJLsevrBc_14qsoripper_core7storage5ports19LookupSnapshotStore19get_lookup_snapshot00B9_
FNDA:0,_RNCNvCs3yFwPKqX78L_24qsoripper_storage_sqlite10decode_qso0B3_
FNDA:0,_RNCNvCs3yFwPKqX78L_24qsoripper_storage_sqlite19millis_to_timestamp0B3_
FNDA:9,_RNCNvCs3yFwPKqX78L_24qsoripper_storage_sqlite19timestamp_to_millis0B3_
FNDA:0,_RNCNvMCs3yFwPKqX78L_24qsoripper_storage_sqliteNtB4_13SqliteStorage10connection0B4_
FNDA:1,_RNvNtCslOMEjNOpVly_24qsoripper_storage_sqlite5testss_38sqlite_storage_lists_qsos_with_filters
FNDA:1,_RNvNtCslOMEjNOpVly_24qsoripper_storage_sqlite5testss_40sqlite_storage_persists_lookup_snapshots
FNDA:1,_RNvNtCslOMEjNOpVly_24qsoripper_storage_sqlite5testss_47timestamp_to_millis_saturates_negative_overflow
FNDA:1,_RNvNtCslOMEjNOpVly_24qsoripper_storage_sqlite5testss_47timestamp_to_millis_saturates_positive_overflow
FNDA:1,_RNvNtCslOMEjNOpVly_24qsoripper_storage_sqlite5testss_54sqlite_storage_round_trips_qsos_through_logbook_engine
FNDA:1,_RNCNCNvNtCslOMEjNOpVly_24qsoripper_storage_sqlite5testss_38sqlite_storage_lists_qsos_with_filters00B7_
FNDA:1,_RNCNvNtCslOMEjNOpVly_24qsoripper_storage_sqlite5testss_38sqlite_storage_lists_qsos_with_filters0B5_
FNDA:1,_RNCNvNtCslOMEjNOpVly_24qsoripper_storage_sqlite5testss_40sqlite_storage_persists_lookup_snapshots0B5_
FNDA:1,_RNCNvNtCslOMEjNOpVly_24qsoripper_storage_sqlite5testss_54sqlite_storage_round_trips_qsos_through_logbook_engine0B5_
FNDA:1,_RINvCslOMEjNOpVly_24qsoripper_storage_sqlite14encode_messageNtNtNtNtCsgPbJLsevrBc_14qsoripper_core5proto9qsoripper6domain12LookupResultEB2_
FNDA:3,_RINvCslOMEjNOpVly_24qsoripper_storage_sqlite14encode_messageNtNtNtNtCsgPbJLsevrBc_14qsoripper_core5proto9qsoripper6domain9QsoRecordEB2_
FNDA:1,_RINvCslOMEjNOpVly_24qsoripper_storage_sqlite14query_optionalINtNtCs2ocB3yIIgEv_5alloc3vec3VechEEB2_
FNDA:0,_RINvCslOMEjNOpVly_24qsoripper_storage_sqlite14query_optionalxEB2_
FNDA:0,_RNCNCNvXs0_CslOMEjNOpVly_24qsoripper_storage_sqliteNtB9_13SqliteStorageNtNtNtCsgPbJLsevrBc_14qsoripper_core7storage5ports12LogbookStore10insert_qso00B9_
FNDA:0,_RNCNCNvXs0_CslOMEjNOpVly_24qsoripper_storage_sqliteNtB9_13SqliteStorageNtNtNtCsgPbJLsevrBc_14qsoripper_core7storage5ports12LogbookStore10qso_counts00B9_
FNDA:0,_RNCNCNvXs0_CslOMEjNOpVly_24qsoripper_storage_sqliteNtB9_13SqliteStorageNtNtNtCsgPbJLsevrBc_14qsoripper_core7storage5ports12LogbookStore10qso_counts0s_0B9_
FNDA:0,_RNCNCNvXs0_CslOMEjNOpVly_24qsoripper_storage_sqliteNtB9_13SqliteStorageNtNtNtCsgPbJLsevrBc_14qsoripper_core7storage5ports12LogbookStore17get_sync_metadata00B9_
FNDA:1,_RNCNCNvXs0_CslOMEjNOpVly_24qsoripper_storage_sqliteNtB9_13SqliteStorageNtNtNtCsgPbJLsevrBc_14qsoripper_core7storage5ports12LogbookStore7get_qso00B9_
FNDA:1,_RNCNCNvXs0_CslOMEjNOpVly_24qsoripper_storage_sqliteNtB9_13SqliteStorageNtNtNtCsgPbJLsevrBc_14qsoripper_core7storage5ports12LogbookStore9list_qsos00B9_
FNDA:0,_RNCNCNvXs1_CslOMEjNOpVly_24qsoripper_storage_sqliteNtB9_13SqliteStorageNtNtNtCsgPbJLsevrBc_14qsoripper_core7storage5ports19LookupSnapshotStore19get_lookup_snapshot00B9_
FNDA:0,_RNCNvCslOMEjNOpVly_24qsoripper_storage_sqlite10decode_qso0B3_
FNDA:1,_RNCNvCslOMEjNOpVly_24qsoripper_storage_sqlite19millis_to_timestamp0B3_
FNDA:12,_RNCNvCslOMEjNOpVly_24qsoripper_storage_sqlite19timestamp_to_millis0B3_
FNDA:0,_RNCNvMCslOMEjNOpVly_24qsoripper_storage_sqliteNtB4_13SqliteStorage10connection0B4_
FNDA:2,_RNvCslOMEjNOpVly_24qsoripper_storage_sqlite10decode_qso
FNDA:0,_RNvCslOMEjNOpVly_24qsoripper_storage_sqlite16map_insert_error
FNDA:0,_RNvCslOMEjNOpVly_24qsoripper_storage_sqlite16map_sqlite_error
FNDA:4,_RNvCslOMEjNOpVly_24qsoripper_storage_sqlite17execute_statement
FNDA:7,_RNvCslOMEjNOpVly_24qsoripper_storage_sqlite17prepare_statement
FNDA:2,_RNvCslOMEjNOpVly_24qsoripper_storage_sqlite19millis_to_timestamp
FNDA:13,_RNvCslOMEjNOpVly_24qsoripper_storage_sqlite19timestamp_to_millis
FNDA:7,_RNvMCslOMEjNOpVly_24qsoripper_storage_sqliteNtB2_13SqliteStorage10connection
FNDA:0,_RNvXs0_CslOMEjNOpVly_24qsoripper_storage_sqliteNtB5_13SqliteStorageNtNtNtCsgPbJLsevrBc_14qsoripper_core7storage5ports12LogbookStore10delete_qso
FNDA:3,_RNvXs0_CslOMEjNOpVly_24qsoripper_storage_sqliteNtB5_13SqliteStorageNtNtNtCsgPbJLsevrBc_14qsoripper_core7storage5ports12LogbookStore10insert_qso
FNDA:0,_RNvXs0_CslOMEjNOpVly_24qsoripper_storage_sqliteNtB5_13SqliteStorageNtNtNtCsgPbJLsevrBc_14qsoripper_core7storage5ports12LogbookStore10qso_counts
FNDA:0,_RNvXs0_CslOMEjNOpVly_24qsoripper_storage_sqliteNtB5_13SqliteStorageNtNtNtCsgPbJLsevrBc_14qsoripper_core7storage5ports12LogbookStore10update_qso
FNDA:0,_RNvXs0_CslOMEjNOpVly_24qsoripper_storage_sqliteNtB5_13SqliteStorageNtNtNtCsgPbJLsevrBc_14qsoripper_core7storage5ports12LogbookStore17get_sync_metadata
FNDA:0,_RNvXs0_CslOMEjNOpVly_24qsoripper_storage_sqliteNtB5_13SqliteStorageNtNtNtCsgPbJLsevrBc_14qsoripper_core7storage5ports12LogbookStore20upsert_sync_metadata
FNDA:1,_RNvXs0_CslOMEjNOpVly_24qsoripper_storage_sqliteNtB5_13SqliteStorageNtNtNtCsgPbJLsevrBc_14qsoripper_core7storage5ports12LogbookStore7get_qso
FNDA:1,_RNvXs0_CslOMEjNOpVly_24qsoripper_storage_sqliteNtB5_13SqliteStorageNtNtNtCsgPbJLsevrBc_14qsoripper_core7storage5ports12LogbookStore9list_qsos
FNDA:1,_RNvXs1_CslOMEjNOpVly_24qsoripper_storage_sqliteNtB5_13SqliteStorageNtNtNtCsgPbJLsevrBc_14qsoripper_core7storage5ports19LookupSnapshotStore19get_lookup_snapshot
FNDA:0,_RNvXs1_CslOMEjNOpVly_24qsoripper_storage_sqliteNtB5_13SqliteStorageNtNtNtCsgPbJLsevrBc_14qsoripper_core7storage5ports19LookupSnapshotStore22delete_lookup_snapshot
FNDA:1,_RNvXs1_CslOMEjNOpVly_24qsoripper_storage_sqliteNtB5_13SqliteStorageNtNtNtCsgPbJLsevrBc_14qsoripper_core7storage5ports19LookupSnapshotStore22upsert_lookup_snapshot
FNDA:0,_RNvXs_CslOMEjNOpVly_24qsoripper_storage_sqliteNtB4_13SqliteStorageNtNtNtCsgPbJLsevrBc_14qsoripper_core7storage5ports13EngineStorage12backend_name
FNDA:0,_RNvXs_CslOMEjNOpVly_24qsoripper_storage_sqliteNtB4_13SqliteStorageNtNtNtCsgPbJLsevrBc_14qsoripper_core7storage5ports13EngineStorage16lookup_snapshots
FNDA:5,_RNvXs_CslOMEjNOpVly_24qsoripper_storage_sqliteNtB4_13SqliteStorageNtNtNtCsgPbJLsevrBc_14qsoripper_core7storage5ports13EngineStorage7logbook
FNF:44
FNH:32
DA:24,18
DA:25,18
DA:26,18
DA:27,18
DA:28,18
DA:32,16
DA:33,16
DA:34,16
DA:36,0
DA:37,0
DA:38,0
DA:40,19
DA:41,19
DA:42,19
DA:47,5
DA:83,0
DA:86,5
DA:88,1
DA:126,1
DA:128,1
DA:138,1
DA:140,5
DA:150,4
DA:151,5
DA:153,2
DA:179,2
DA:184,2
DA:194,2
DA:203,2
DA:221,2
DA:223,2
DA:225,1
DA:242,0
DA:244,0
DA:246,1
DA:248,1
DA:264,0
DA:276,1
DA:278,0
DA:297,0
DA:305,1
DA:320,0
DA:340,1
DA:342,1
DA:365,1
DA:367,0
DA:377,0
DA:380,7
DA:381,7
DA:382,7
DA:384,6
DA:385,6
DA:386,6
DA:388,19
DA:389,19
DA:390,19
DA:391,19
DA:392,19
DA:393,19
DA:394,19
DA:395,17
DA:396,2
DA:398,19
DA:399,19
DA:401,8
DA:402,8
DA:403,8
DA:404,8
DA:405,8
DA:406,8
DA:407,8
DA:408,8
DA:409,8
DA:411,7
DA:412,7
DA:413,7
DA:414,7
DA:415,7
DA:416,7
DA:417,7
DA:418,7
DA:420,7
DA:421,7
DA:422,6
DA:423,1
DA:425,7
DA:427,0
DA:428,0
DA:429,0
DA:430,0
DA:432,0
DA:434,0
DA:436,0
DA:438,0
DA:439,0
DA:440,0
DA:441,0
DA:442,0
DA:443,0
DA:446,0
DA:447,0
DA:449,22
DA:450,22
DA:451,21
DA:452,21
DA:453,21
DA:454,21
DA:455,21
DA:456,22
DA:458,3
DA:459,3
DA:460,1
DA:461,1
DA:462,1
DA:463,3
DA:479,1
DA:480,1
DA:481,1
DA:482,1
DA:483,1
DA:484,1
DA:485,1
DA:486,1
DA:487,1
DA:488,1
DA:489,1
DA:490,1
DA:492,1
DA:493,1
DA:495,1
DA:496,1
DA:497,1
DA:498,1
DA:499,1
DA:502,1
DA:503,1
DA:504,1
DA:505,1
DA:507,1
DA:508,1
DA:509,1
DA:510,1
DA:511,1
DA:512,1
DA:513,1
DA:514,1
DA:515,1
DA:516,1
DA:517,1
DA:518,1
DA:519,1
DA:520,1
DA:521,1
DA:522,1
DA:523,1
DA:525,1
DA:526,1
DA:528,1
DA:529,1
DA:530,1
DA:531,1
DA:532,1
DA:533,1
DA:534,1
DA:536,1
DA:537,1
DA:538,1
DA:539,1
DA:540,1
DA:541,1
DA:544,1
DA:545,1
DA:546,1
DA:547,1
DA:548,1
DA:549,1
DA:550,1
DA:551,1
DA:552,1
DA:553,1
DA:554,1
DA:555,1
DA:556,1
DA:557,1
DA:558,1
DA:560,1
DA:561,1
DA:563,1
DA:564,0
DA:567,1
DA:568,1
DA:569,1
DA:572,1
DA:573,1
DA:574,1
DA:575,1
DA:576,1
DA:578,1
DA:579,1
DA:582,1
DA:583,1
DA:584,1
DA:585,1
DA:586,1
DA:588,1
DA:589,1
BRF:0
BRH:0
LF:217
LH:187
end_of_record